Component: ARM Compiler 5.06 update 7 (build 960) Tool: armlink [4d3601]

==============================================================================

Section Cross References

    main.o(i.hal_low_power_io_init) refers to gpio.o(i.hal_gpio_pull_set) for hal_gpio_pull_set
    main.o(i.hal_low_power_io_init) refers to pwrmgr.o(i.hal_pwrmgr_RAM_retention) for hal_pwrmgr_RAM_retention
    main.o(i.hal_low_power_io_init) refers to pwrmgr.o(i.hal_pwrmgr_RAM_retention_set) for hal_pwrmgr_RAM_retention_set
    main.o(i.hal_low_power_io_init) refers to pwrmgr.o(i.hal_pwrmgr_LowCurrentLdo_enable) for hal_pwrmgr_LowCurrentLdo_enable
    main.o(i.hal_low_power_io_init) refers to main.o(.constdata) for .constdata
    main.o(i.hal_rfphy_init) refers to patch.o(i.hal_rom_boot_init) for hal_rom_boot_init
    main.o(i.hal_rfphy_init) refers to main.o(i.__NVIC_SetPriority) for __NVIC_SetPriority
    main.o(i.hal_rfphy_init) refers to main.o(.bss) for .bss
    main.o(i.main) refers to patch.o(_section_xip_code_) for init_config
    main.o(i.main) refers to main.o(i.hal_rfphy_init) for hal_rfphy_init
    main.o(i.main) refers to main.o(i.hal_low_power_io_init) for hal_low_power_io_init
    main.o(i.main) refers to clock.o(i.hal_rtc_clock_config) for hal_rtc_clock_config
    main.o(i.main) refers to pwrmgr.o(i.hal_pwrmgr_init) for hal_pwrmgr_init
    main.o(i.main) refers to flash.o(i.hal_spif_cache_init) for hal_spif_cache_init
    main.o(i.main) refers to my_printf.o(i.dbg_printf_init) for dbg_printf_init
    main.o(i.main) refers to gpio.o(i.hal_gpio_init) for hal_gpio_init
    main.o(i.main) refers to adc.o(i.hal_adc_init) for hal_adc_init
    main.o(i.main) refers to phy_rf.o(i.app_main) for app_main
    main.o(i.main) refers to main.o(.data) for .data
    main.o(i.main) refers to main.o(.constdata) for .constdata
    phy_rf.o(i.PLUSPHY_IRQHandler) refers to rf_phy_driver.o(i.rf_phy_get_pktFoot) for rf_phy_get_pktFoot
    phy_rf.o(i.PLUSPHY_IRQHandler) refers to rf_phy_driver.o(i.rf_phy_get_pktFoot_fromPkt) for rf_phy_get_pktFoot_fromPkt
    phy_rf.o(i.PLUSPHY_IRQHandler) refers to phy_rf.o(i.phy_rx_data_check) for phy_rx_data_check
    phy_rf.o(i.PLUSPHY_IRQHandler) refers to phy_rf.o(.data) for .data
    phy_rf.o(i.PLUSPHY_IRQHandler) refers to phy_rf.o(.bss) for .bss
    phy_rf.o(i.PhyRf_Init) refers to flash.o(i.hal_flash_read) for hal_flash_read
    phy_rf.o(i.PhyRf_Init) refers to phy_rf.o(i.phy_tx_buf_updata) for phy_tx_buf_updata
    phy_rf.o(i.PhyRf_Init) refers to my.o(i.my_inti) for my_inti
    phy_rf.o(i.PhyRf_Init) refers to phy_rf.o(.data) for .data
    phy_rf.o(i.PhyRf_Init) refers to phy_rf.o(i.PLUSPHY_IRQHandler) for PLUSPHY_IRQHandler
    phy_rf.o(i.PhyRf_Init) refers to phy_rf.o(.bss) for .bss
    phy_rf.o(i.PhyRf_ProcessEvent) refers to my.o(i.time_cb) for time_cb
    phy_rf.o(i.PhyRf_ProcessEvent) refers to phy_rf.o(i.phy_rf_tx) for phy_rf_tx
    phy_rf.o(i.PhyRf_ProcessEvent) refers to gpio.o(i.hal_gpio_write) for hal_gpio_write
    phy_rf.o(i.PhyRf_ProcessEvent) refers to phy_rf.o(.bss) for .bss
    phy_rf.o(i.PhyRf_ProcessEvent) refers to phy_rf.o(.data) for .data
    phy_rf.o(i.phy_hw_go) refers to phy_rf.o(.bss) for .bss
    phy_rf.o(i.phy_hw_pktFmt_Config) refers to rf_phy_driver.o(i.rf_phy_bb_cfg) for rf_phy_bb_cfg
    phy_rf.o(i.phy_rf_tx) refers to phy_rf.o(i.phy_hw_stop) for phy_hw_stop
    phy_rf.o(i.phy_rf_tx) refers to phy_rf.o(i.phy_hw_pktFmt_Config) for phy_hw_pktFmt_Config
    phy_rf.o(i.phy_rf_tx) refers to phy_rf.o(i.phy_hw_timing_setting) for phy_hw_timing_setting
    phy_rf.o(i.phy_rf_tx) refers to phy_rf.o(i.phy_set_channel) for phy_set_channel
    phy_rf.o(i.phy_rf_tx) refers to phy_rf.o(i.phy_hw_set_stx) for phy_hw_set_stx
    phy_rf.o(i.phy_rf_tx) refers to phy_rf.o(i.phy_hw_go) for phy_hw_go
    phy_rf.o(i.phy_rf_tx) refers to phy_rf.o(i.phy_hw_set_trx) for phy_hw_set_trx
    phy_rf.o(i.phy_rf_tx) refers to phy_rf.o(.bss) for .bss
    phy_rf.o(i.phy_rx_data_check) refers to phy_rf.o(.bss) for .bss
    phy_rf.o(i.phy_rx_data_check) refers to phy_rf.o(.data) for .data
    phy_rf.o(i.phy_tx_buf_updata) refers to phy_rf.o(.bss) for .bss
    osal_phyrf.o(i.osalInitTasks) refers to phy_rf.o(i.PhyRf_Init) for PhyRf_Init
    osal_phyrf.o(i.osalInitTasks) refers to osal_phyrf.o(.data) for .data
    osal_phyrf.o(.constdata) refers to phy_rf.o(i.PhyRf_ProcessEvent) for PhyRf_ProcessEvent
    smart_rf_app.o(i.SmartRf_App_Init) refers to smart_rf_app.o(.data) for .data
    adc.o(i.adc_init_r) refers to clock.o(i.hal_clk_gate_enable) for hal_clk_gate_enable
    adc.o(i.adc_init_r) refers to gpio.o(i.hal_gpio_cfg_analog_io) for hal_gpio_cfg_analog_io
    adc.o(i.clear_adcc_cfg) refers to adc.o(.bss) for .bss
    adc.o(i.hal_ADC_IRQHandler) refers to adc.o(i.hal_adc_stop) for hal_adc_stop
    adc.o(i.hal_ADC_IRQHandler) refers to adc.o(.bss) for .bss
    adc.o(i.hal_adc_clock_config) refers to adc.o(.data) for .data
    adc.o(i.hal_adc_config_channel) refers to clock.o(i.hal_clk_gate_enable) for hal_clk_gate_enable
    adc.o(i.hal_adc_config_channel) refers to adc.o(i.set_sampling_resolution) for set_sampling_resolution
    adc.o(i.hal_adc_config_channel) refers to gpio.o(i.hal_gpio_pull_set) for hal_gpio_pull_set
    adc.o(i.hal_adc_config_channel) refers to gpio.o(i.hal_gpio_ds_control) for hal_gpio_ds_control
    adc.o(i.hal_adc_config_channel) refers to gpio.o(i.hal_gpio_cfg_analog_io) for hal_gpio_cfg_analog_io
    adc.o(i.hal_adc_config_channel) refers to adc.o(.data) for .data
    adc.o(i.hal_adc_config_channel) refers to adc.o(.bss) for .bss
    adc.o(i.hal_adc_init) refers to pwrmgr.o(i.hal_pwrmgr_register) for hal_pwrmgr_register
    adc.o(i.hal_adc_init) refers to adc.o(i.clear_adcc_cfg) for clear_adcc_cfg
    adc.o(i.hal_adc_init) refers to adc.o(.data) for .data
    adc.o(i.hal_adc_init) refers to adc.o(i.adc_wakeup_hdl) for adc_wakeup_hdl
    adc.o(i.hal_adc_start) refers to pwrmgr.o(i.hal_pwrmgr_lock) for hal_pwrmgr_lock
    adc.o(i.hal_adc_start) refers to adc.o(.data) for .data
    adc.o(i.hal_adc_start) refers to adc.o(.bss) for .bss
    adc.o(i.hal_adc_start) refers to adc.o(i.hal_ADC_IRQHandler) for hal_ADC_IRQHandler
    adc.o(i.hal_adc_stop) refers to gpio.o(i.hal_gpio_cfg_analog_io) for hal_gpio_cfg_analog_io
    adc.o(i.hal_adc_stop) refers to gpio.o(i.hal_gpio_pin_init) for hal_gpio_pin_init
    adc.o(i.hal_adc_stop) refers to gpio.o(i.hal_gpio_pull_set) for hal_gpio_pull_set
    adc.o(i.hal_adc_stop) refers to clock.o(i.hal_clk_gate_disable) for hal_clk_gate_disable
    adc.o(i.hal_adc_stop) refers to adc.o(i.clear_adcc_cfg) for clear_adcc_cfg
    adc.o(i.hal_adc_stop) refers to pwrmgr.o(i.hal_pwrmgr_unlock) for hal_pwrmgr_unlock
    adc.o(i.hal_adc_stop) refers to adc.o(.data) for .data
    adc.o(i.hal_adc_stop) refers to adc.o(.bss) for .bss
    adc.o(i.hal_adc_value_cal) refers to ffltui.o(.text) for __aeabi_ui2f
    adc.o(i.hal_adc_value_cal) refers to fflti.o(.text) for __aeabi_i2f
    adc.o(i.hal_adc_value_cal) refers to fdiv.o(.text) for __aeabi_fdiv
    adc.o(i.hal_adc_value_cal) refers to dflti.o(.text) for __aeabi_i2d
    adc.o(i.hal_adc_value_cal) refers to dscalb.o(.text) for __ARM_scalbn
    adc.o(i.hal_adc_value_cal) refers to d2f.o(.text) for __aeabi_d2f
    adc.o(i.hal_adc_value_cal) refers to fadd.o(.text) for __aeabi_fsub
    adc.o(i.hal_adc_value_cal) refers to fscalb.o(.text) for __ARM_scalbnf
    adc.o(i.hal_adc_value_cal) refers to fmul.o(.text) for __aeabi_fmul
    adc.o(i.hal_adc_value_cal) refers to f2d.o(.text) for __aeabi_f2d
    adc.o(i.hal_adc_value_cal) refers to dmul.o(.text) for __aeabi_dmul
    adc.o(i.hal_adc_value_cal) refers to ddiv.o(.text) for __aeabi_ddiv
    adc.o(i.hal_adc_value_cal) refers to adc.o(.data) for .data
    adc.o(i.hal_adc_value_cal) refers to adc.o(.constdata) for .constdata
    adc_demo.o(i.adcMeasureCh) refers to adc.o(i.adc_init_r) for adc_init_r
    adc_demo.o(i.adcMeasureCh) refers to clock.o(i.WaitUs) for WaitUs
    adc_demo.o(i.adcMeasureCh) refers to adc.o(i.adc_stop_r) for adc_stop_r
    adc_demo.o(i.adcMeasureCh) refers to adc_demo.o(i.InsertSort) for InsertSort
    adc_demo.o(i.adcMeasureCh) refers to adc_demo.o(.constdata) for .constdata
    adc_demo.o(i.adcMeasureCh) refers to adc_demo.o(.bss) for .bss
    adc_demo.o(i.adc_ProcessEvent) refers to adc_demo.o(.data) for .data
    adc_demo.o(i.get_adc) refers to adc_demo.o(i.adcMeasureCh) for adcMeasureCh
    adc_demo.o(i.get_adc) refers to dfltui.o(.text) for __aeabi_ui2d
    adc_demo.o(i.get_adc) refers to dmul.o(.text) for __aeabi_dmul
    adc_demo.o(i.get_adc) refers to ddiv.o(.text) for __aeabi_ddiv
    adc_demo.o(i.get_adc) refers to dadd.o(.text) for __aeabi_dadd
    adc_demo.o(i.get_adc) refers to dfixui.o(.text) for __aeabi_d2uiz
    adc_demo.o(i.get_adc) refers to my.o(.data) for adc_data
    adc_demo.o(i.my_hal_adc_value_cal) refers to ffltui.o(.text) for __aeabi_ui2f
    adc_demo.o(i.my_hal_adc_value_cal) refers to fscalb.o(.text) for __ARM_scalbnf
    adc_demo.o(i.my_hal_adc_value_cal) refers to fadd.o(.text) for __aeabi_fsub
    adc_demo.o(i.my_hal_adc_value_cal) refers to f2d.o(.text) for __aeabi_f2d
    adc_demo.o(i.my_hal_adc_value_cal) refers to dmul.o(.text) for __aeabi_dmul
    adc_demo.o(i.my_hal_adc_value_cal) refers to d2f.o(.text) for __aeabi_d2f
    my.o(i.change_adc) refers to my.o(.bss) for .bss
    my.o(i.change_adv_buffer) refers to my.o(.data) for .data
    my.o(i.change_adv_buffer) refers to phy_rf.o(.bss) for adv_buffer
    my.o(i.my_inti) refers to gpio.o(i.hal_gpio_write) for hal_gpio_write
    my.o(i.my_inti) refers to gpio.o(i.hal_gpioretention_register) for hal_gpioretention_register
    my.o(i.my_inti) refers to clock.o(i.WaitMs) for WaitMs
    my.o(i.my_inti) refers to qma7981.o(i.qma7981_init) for qma7981_init
    my.o(i.time_cb) refers to qma7981.o(i.qma_read_regs) for qma_read_regs
    my.o(i.time_cb) refers to qma7981.o(i.qma_read_reg) for qma_read_reg
    my.o(i.time_cb) refers to adc_demo.o(i.get_adc) for get_adc
    my.o(i.time_cb) refers to my.o(i.change_adv_buffer) for change_adv_buffer
    my.o(i.time_cb) refers to phy_rf.o(i.phy_tx_buf_updata) for phy_tx_buf_updata
    my.o(i.time_cb) refers to my.o(.data) for .data
    my.o(i.time_cb) refers to phy_rf.o(.bss) for adv_buffer
    my.o(i.time_cb) refers to phy_rf.o(.data) for advHead
    uart.o(_section_sram_code_) refers to pwrmgr.o(i.hal_pwrmgr_unlock) for hal_pwrmgr_unlock
    uart.o(_section_sram_code_) refers to uart.o(.bss) for .bss
    uart.o(_section_sram_code_) refers to uart.o(.constdata) for .constdata
    uart.o(i.hal_uart_deinit) refers to uart.o(i.uart_hw_deinit) for uart_hw_deinit
    uart.o(i.hal_uart_deinit) refers to pwrmgr.o(i.hal_pwrmgr_unregister) for hal_pwrmgr_unregister
    uart.o(i.hal_uart_deinit) refers to uart.o(.bss) for .bss
    uart.o(i.hal_uart_get_tx_ready) refers to uart.o(.bss) for .bss
    uart.o(i.hal_uart_init) refers to uart.o(i.uart_hw_init) for uart_hw_init
    uart.o(i.hal_uart_init) refers to pwrmgr.o(i.hal_pwrmgr_register) for hal_pwrmgr_register
    uart.o(i.hal_uart_init) refers to uart.o(.bss) for .bss
    uart.o(i.hal_uart_init) refers to uart.o(i.uart_wakeup_process_1) for uart_wakeup_process_1
    uart.o(i.hal_uart_init) refers to uart.o(i.uart_wakeup_process_0) for uart_wakeup_process_0
    uart.o(i.hal_uart_send_buff) refers to uart.o(i.txmit_buf_use_tx_buf) for txmit_buf_use_tx_buf
    uart.o(i.hal_uart_send_buff) refers to uart.o(i.txmit_buf_polling) for txmit_buf_polling
    uart.o(i.hal_uart_send_buff) refers to uart.o(.bss) for .bss
    uart.o(i.hal_uart_set_tx_buf) refers to uart.o(.bss) for .bss
    uart.o(i.txmit_buf_use_tx_buf) refers to pwrmgr.o(i.hal_pwrmgr_lock) for hal_pwrmgr_lock
    uart.o(i.txmit_buf_use_tx_buf) refers to uart.o(.bss) for .bss
    uart.o(i.uart_hw_deinit) refers to gpio.o(i.hal_gpio_fmux) for hal_gpio_fmux
    uart.o(i.uart_hw_deinit) refers to clock.o(i.hal_clk_reset) for hal_clk_reset
    uart.o(i.uart_hw_deinit) refers to clock.o(i.hal_clk_gate_disable) for hal_clk_gate_disable
    uart.o(i.uart_hw_deinit) refers to uart.o(.bss) for .bss
    uart.o(i.uart_hw_init) refers to uart.o(i.uart_hw_deinit) for uart_hw_deinit
    uart.o(i.uart_hw_init) refers to clock.o(i.hal_clk_gate_enable) for hal_clk_gate_enable
    uart.o(i.uart_hw_init) refers to clock.o(i.hal_clk_reset) for hal_clk_reset
    uart.o(i.uart_hw_init) refers to gpio.o(i.hal_gpio_pull_set) for hal_gpio_pull_set
    uart.o(i.uart_hw_init) refers to gpio.o(i.hal_gpio_fmux_set) for hal_gpio_fmux_set
    uart.o(i.uart_hw_init) refers to uart.o(.bss) for .bss
    uart.o(i.uart_hw_init) refers to uart.o(_section_sram_code_) for hal_UART1_IRQHandler
    uart.o(i.uart_wakeup_process_0) refers to uart.o(i.uart_hw_init) for uart_hw_init
    uart.o(i.uart_wakeup_process_1) refers to uart.o(i.uart_hw_init) for uart_hw_init
    clock.o(i.hal_rtc_clock_config) refers to gpio.o(i.hal_gpio_pull_set) for hal_gpio_pull_set
    gpio.o(i.hal_GPIO_IRQHandler) refers to gpio.o(i.hal_gpioin_event) for hal_gpioin_event
    gpio.o(i.hal_gpio_cfg_analog_io) refers to gpio.o(i.hal_gpio_pull_set) for hal_gpio_pull_set
    gpio.o(i.hal_gpio_fmux_set) refers to gpio.o(i.hal_gpio_fmux) for hal_gpio_fmux
    gpio.o(i.hal_gpio_init) refers to gpio.o(i.__NVIC_SetPriority) for __NVIC_SetPriority
    gpio.o(i.hal_gpio_init) refers to gpio.o(i.__NVIC_EnableIRQ) for __NVIC_EnableIRQ
    gpio.o(i.hal_gpio_init) refers to pwrmgr.o(i.hal_pwrmgr_register) for hal_pwrmgr_register
    gpio.o(i.hal_gpio_init) refers to gpio.o(.bss) for .bss
    gpio.o(i.hal_gpio_init) refers to gpio.o(i.hal_gpio_wakeup_handler) for hal_gpio_wakeup_handler
    gpio.o(i.hal_gpio_init) refers to gpio.o(i.hal_gpio_sleep_handler) for hal_gpio_sleep_handler
    gpio.o(i.hal_gpio_pin_init) refers to gpio.o(i.hal_gpio_fmux) for hal_gpio_fmux
    gpio.o(i.hal_gpio_pin_init) refers to gpio.o(i.hal_gpio_pin2pin3_control) for hal_gpio_pin2pin3_control
    gpio.o(i.hal_gpio_pin_init) refers to gpio.o(i.hal_gpio_cfg_analog_io) for hal_gpio_cfg_analog_io
    gpio.o(i.hal_gpio_pin_init) refers to gpio.o(.bss) for .bss
    gpio.o(i.hal_gpio_pull_set) refers to gpio.o(.constdata) for .constdata
    gpio.o(i.hal_gpio_retention_enable) refers to gpio.o(.constdata) for .constdata
    gpio.o(i.hal_gpio_sleep_handler) refers to gpio.o(i.hal_gpio_retention_enable) for hal_gpio_retention_enable
    gpio.o(i.hal_gpio_sleep_handler) refers to gpio.o(i.hal_gpio_read) for hal_gpio_read
    gpio.o(i.hal_gpio_sleep_handler) refers to gpio.o(i.hal_gpio_wakeup_set) for hal_gpio_wakeup_set
    gpio.o(i.hal_gpio_sleep_handler) refers to gpio.o(.bss) for .bss
    gpio.o(i.hal_gpio_wakeup_control) refers to gpio.o(.constdata) for .constdata
    gpio.o(i.hal_gpio_wakeup_handler) refers to gpio.o(i.__NVIC_SetPriority) for __NVIC_SetPriority
    gpio.o(i.hal_gpio_wakeup_handler) refers to gpio.o(i.__NVIC_EnableIRQ) for __NVIC_EnableIRQ
    gpio.o(i.hal_gpio_wakeup_handler) refers to gpio.o(i.hal_gpio_pin2pin3_control) for hal_gpio_pin2pin3_control
    gpio.o(i.hal_gpio_wakeup_handler) refers to gpio.o(i.hal_gpio_read) for hal_gpio_read
    gpio.o(i.hal_gpio_wakeup_handler) refers to gpio.o(i.hal_gpio_write) for hal_gpio_write
    gpio.o(i.hal_gpio_wakeup_handler) refers to gpio.o(i.hal_gpio_retention_enable) for hal_gpio_retention_enable
    gpio.o(i.hal_gpio_wakeup_handler) refers to gpio.o(i.hal_gpioin_enable) for hal_gpioin_enable
    gpio.o(i.hal_gpio_wakeup_handler) refers to gpio.o(i.hal_gpioin_event_pin) for hal_gpioin_event_pin
    gpio.o(i.hal_gpio_wakeup_handler) refers to gpio.o(.bss) for .bss
    gpio.o(i.hal_gpio_wakeup_set) refers to gpio.o(i.hal_gpio_wakeup_control) for hal_gpio_wakeup_control
    gpio.o(i.hal_gpio_wakeup_set) refers to gpio.o(.constdata) for .constdata
    gpio.o(i.hal_gpio_wakeup_set) refers to gpio.o(.bss) for .bss
    gpio.o(i.hal_gpio_write) refers to gpio.o(i.hal_gpio_pin_init) for hal_gpio_pin_init
    gpio.o(i.hal_gpioin_disable) refers to gpio.o(i.hal_gpio_pin_init) for hal_gpio_pin_init
    gpio.o(i.hal_gpioin_disable) refers to gpio.o(.bss) for .bss
    gpio.o(i.hal_gpioin_enable) refers to gpio.o(i.hal_gpio_pin_init) for hal_gpio_pin_init
    gpio.o(i.hal_gpioin_enable) refers to gpio.o(i.hal_gpio_read) for hal_gpio_read
    gpio.o(i.hal_gpioin_enable) refers to gpio.o(i.hal_gpio_interrupt_enable) for hal_gpio_interrupt_enable
    gpio.o(i.hal_gpioin_enable) refers to gpio.o(.bss) for .bss
    gpio.o(i.hal_gpioin_event) refers to gpio.o(i.hal_gpioin_event_pin) for hal_gpioin_event_pin
    gpio.o(i.hal_gpioin_event) refers to gpio.o(i.hal_gpio_interrupt_enable) for hal_gpio_interrupt_enable
    gpio.o(i.hal_gpioin_event) refers to gpio.o(.bss) for .bss
    gpio.o(i.hal_gpioin_event_pin) refers to gpio.o(.bss) for .bss
    gpio.o(i.hal_gpioin_register) refers to gpio.o(i.hal_gpioin_disable) for hal_gpioin_disable
    gpio.o(i.hal_gpioin_register) refers to gpio.o(i.hal_gpioin_enable) for hal_gpioin_enable
    gpio.o(i.hal_gpioin_register) refers to gpio.o(.bss) for .bss
    gpio.o(i.hal_gpioin_register) refers to gpio.o(i.hal_GPIO_IRQHandler) for hal_GPIO_IRQHandler
    gpio.o(i.hal_gpioin_set_flag) refers to gpio.o(.bss) for .bss
    gpio.o(i.hal_gpioin_unregister) refers to gpio.o(i.hal_gpioin_disable) for hal_gpioin_disable
    gpio.o(i.hal_gpioin_unregister) refers to gpio.o(.bss) for .bss
    gpio.o(i.hal_gpioretention_register) refers to gpio.o(i.hal_gpio_pin_init) for hal_gpio_pin_init
    gpio.o(i.hal_gpioretention_register) refers to gpio.o(.bss) for .bss
    gpio.o(i.hal_gpioretention_unregister) refers to gpio.o(i.hal_gpio_pin_init) for hal_gpio_pin_init
    gpio.o(i.hal_gpioretention_unregister) refers to gpio.o(.bss) for .bss
    timer.o(i.hal_TIMER5_IRQHandler) refers to timer.o(.data) for .data
    timer.o(i.hal_TIMER6_IRQHandler) refers to timer.o(.data) for .data
    timer.o(i.hal_timer_deinit) refers to pwrmgr.o(i.hal_pwrmgr_unregister) for hal_pwrmgr_unregister
    timer.o(i.hal_timer_deinit) refers to timer.o(.data) for .data
    timer.o(i.hal_timer_init) refers to timer.o(i.hal_timer_stop) for hal_timer_stop
    timer.o(i.hal_timer_init) refers to pwrmgr.o(i.hal_pwrmgr_register) for hal_pwrmgr_register
    timer.o(i.hal_timer_init) refers to timer.o(.data) for .data
    timer.o(i.hal_timer_init) refers to timer.o(i.hal_timer_wakeup_handler) for hal_timer_wakeup_handler
    timer.o(i.hal_timer_init) refers to timer.o(i.hal_timer_sleep_handler) for hal_timer_sleep_handler
    timer.o(i.hal_timer_mask_int) refers to timer.o(.constdata) for .constdata
    timer.o(i.hal_timer_set) refers to timer.o(i.__NVIC_EnableIRQ) for __NVIC_EnableIRQ
    timer.o(i.hal_timer_set) refers to timer.o(i.__NVIC_SetPriority) for __NVIC_SetPriority
    timer.o(i.hal_timer_set) refers to timer.o(i.hal_timer_set_loadtimer) for hal_timer_set_loadtimer
    timer.o(i.hal_timer_set) refers to clock.o(i.hal_clk_gate_enable) for hal_clk_gate_enable
    timer.o(i.hal_timer_set) refers to timer.o(i.hal_TIMER5_IRQHandler) for hal_TIMER5_IRQHandler
    timer.o(i.hal_timer_set) refers to timer.o(i.hal_TIMER6_IRQHandler) for hal_TIMER6_IRQHandler
    timer.o(i.hal_timer_sleep_handler) refers to timer.o(.data) for .data
    timer.o(i.hal_timer_stop) refers to timer.o(i.hal_timer_stop_counter) for hal_timer_stop_counter
    timer.o(i.hal_timer_stop) refers to timer.o(i.__NVIC_DisableIRQ) for __NVIC_DisableIRQ
    timer.o(i.hal_timer_stop) refers to clock.o(i.hal_clk_gate_disable) for hal_clk_gate_disable
    timer.o(i.hal_timer_wakeup_handler) refers to timer.o(.data) for .data
    pwrmgr.o(_section_sram_code_) refers to pwrmgr.o(i.hal_pwrmgr_RAM_retention_clr) for hal_pwrmgr_RAM_retention_clr
    pwrmgr.o(_section_standby_code_) refers to gpio.o(i.hal_gpio_pin2pin3_control) for hal_gpio_pin2pin3_control
    pwrmgr.o(_section_standby_code_) refers to pwrmgr.o(_section_standby_code_) for _section_standby_code_
    pwrmgr.o(i.hal_pwrmgr_RAM_retention) refers to pwrmgr.o(.data) for .data
    pwrmgr.o(i.hal_pwrmgr_RAM_retention_set) refers to pwrmgr.o(.data) for .data
    pwrmgr.o(i.hal_pwrmgr_clk_gate_config) refers to pwrmgr.o(.data) for .data
    pwrmgr.o(i.hal_pwrmgr_init) refers to pwrmgr.o(.bss) for .bss
    pwrmgr.o(i.hal_pwrmgr_init) refers to pwrmgr.o(.data) for .data
    pwrmgr.o(i.hal_pwrmgr_init) refers to pwrmgr.o(_section_sram_code_) for osal_idle_task
    pwrmgr.o(i.hal_pwrmgr_is_lock) refers to pwrmgr.o(.data) for .data
    pwrmgr.o(i.hal_pwrmgr_is_lock) refers to pwrmgr.o(.bss) for .bss
    pwrmgr.o(i.hal_pwrmgr_lock) refers to pwrmgr.o(.data) for .data
    pwrmgr.o(i.hal_pwrmgr_lock) refers to pwrmgr.o(.bss) for .bss
    pwrmgr.o(i.hal_pwrmgr_register) refers to pwrmgr.o(.bss) for .bss
    pwrmgr.o(i.hal_pwrmgr_sleep_process) refers to pwrmgr.o(i.hal_pwrmgr_RAM_retention_set) for hal_pwrmgr_RAM_retention_set
    pwrmgr.o(i.hal_pwrmgr_sleep_process) refers to pwrmgr.o(.bss) for .bss
    pwrmgr.o(i.hal_pwrmgr_unlock) refers to pwrmgr.o(.data) for .data
    pwrmgr.o(i.hal_pwrmgr_unlock) refers to pwrmgr.o(.bss) for .bss
    pwrmgr.o(i.hal_pwrmgr_unregister) refers to pwrmgr.o(.bss) for .bss
    pwrmgr.o(i.hal_pwrmgr_wakeup_process) refers to pwrmgr.o(i.__NVIC_SetPriority) for __NVIC_SetPriority
    pwrmgr.o(i.hal_pwrmgr_wakeup_process) refers to pwrmgr.o(.data) for .data
    pwrmgr.o(i.hal_pwrmgr_wakeup_process) refers to pwrmgr.o(.bss) for .bss
    my_printf.o(i._uart_putc) refers to uart.o(i.hal_uart_send_buff) for hal_uart_send_buff
    my_printf.o(i.dbg_printf) refers to my_printf.o(i.log_vsprintf) for log_vsprintf
    my_printf.o(i.dbg_printf) refers to my_printf.o(i._uart_putc) for _uart_putc
    my_printf.o(i.dbg_printf_init) refers to uart.o(i.hal_uart_init) for hal_uart_init
    my_printf.o(i.dbg_printf_init) refers to my_printf.o(.constdata) for .constdata
    my_printf.o(i.log_vsprintf) refers to my_printf.o(i.skip_atoi) for skip_atoi
    my_printf.o(i.log_vsprintf) refers to my_printf.o(i.number) for number
    my_printf.o(i.my_dump_byte) refers to my_printf.o(i.dbg_printf) for dbg_printf
    my_printf.o(i.number) refers to my_printf.o(.data) for .data
    my_printf.o(.data) refers to my_printf.o(.conststring) for .conststring
    flash.o(i.LOG_CHIP_MADDR) refers to my_printf.o(i.dbg_printf) for dbg_printf
    flash.o(i.LOG_CHIP_MADDR) refers to flash.o(.data) for .data
    flash.o(i.check_chip_mAddr) refers to flash.o(i.read_chip_mAddr) for read_chip_mAddr
    flash.o(i.check_chip_mAddr) refers to flash.o(.data) for .data
    flash.o(i.flash_write_word) refers to flash.o(i.hal_flash_write) for hal_flash_write
    flash.o(i.hal_flash_erase_all) refers to flash.o(_section_sram_code_) for spif_lock
    flash.o(i.hal_flash_erase_all) refers to flash.o(i._spif_wait_nobusy_x) for _spif_wait_nobusy_x
    flash.o(i.hal_flash_erase_all) refers to flash.o(i.hal_cache_tag_flush) for hal_cache_tag_flush
    flash.o(i.hal_flash_erase_block64) refers to flash.o(_section_sram_code_) for spif_lock
    flash.o(i.hal_flash_erase_block64) refers to flash.o(i._spif_wait_nobusy_x) for _spif_wait_nobusy_x
    flash.o(i.hal_flash_erase_block64) refers to flash.o(i.hal_cache_tag_flush) for hal_cache_tag_flush
    flash.o(i.hal_flash_erase_sector) refers to flash.o(_section_sram_code_) for spif_lock
    flash.o(i.hal_flash_erase_sector) refers to flash.o(i._spif_wait_nobusy_x) for _spif_wait_nobusy_x
    flash.o(i.hal_flash_erase_sector) refers to flash.o(i.hal_cache_tag_flush) for hal_cache_tag_flush
    flash.o(i.hal_flash_read) refers to flash.o(_section_sram_code_) for spif_lock
    flash.o(i.hal_flash_read) refers to flash.o(.data) for .data
    flash.o(i.hal_flash_write) refers to flash.o(_section_sram_code_) for spif_lock
    flash.o(i.hal_flash_write) refers to flash.o(i._spif_wait_nobusy_x) for _spif_wait_nobusy_x
    flash.o(i.hal_flash_write_by_dma) refers to flash.o(_section_sram_code_) for spif_lock
    flash.o(i.hal_flash_write_by_dma) refers to flash.o(i._spif_wait_nobusy_x) for _spif_wait_nobusy_x
    flash.o(i.hal_get_flash_info) refers to flash.o(_section_sram_code_) for spif_lock
    flash.o(i.hal_get_flash_info) refers to flash.o(i._spif_wait_nobusy_x) for _spif_wait_nobusy_x
    flash.o(i.hal_get_flash_info) refers to flash.o(.data) for .data
    flash.o(i.hal_spif_cache_init) refers to flash.o(i.hw_spif_cache_config) for hw_spif_cache_config
    flash.o(i.hal_spif_cache_init) refers to pwrmgr.o(i.hal_pwrmgr_register) for hal_pwrmgr_register
    flash.o(i.hal_spif_cache_init) refers to flash.o(.data) for .data
    flash.o(i.hw_spif_cache_config) refers to clock.o(i.hal_clk_gate_enable) for hal_clk_gate_enable
    flash.o(i.hw_spif_cache_config) refers to flash.o(i.hal_cache_tag_flush) for hal_cache_tag_flush
    flash.o(i.hw_spif_cache_config) refers to flash.o(i.hal_get_flash_info) for hal_get_flash_info
    flash.o(i.hw_spif_cache_config) refers to flash.o(.data) for .data
    flash.o(i.read_chip_mAddr) refers to patch.o(i.chip_id_one_bit_hot_convter) for chip_id_one_bit_hot_convter
    flash.o(i.read_chip_mAddr) refers to flash.o(.data) for .data
    fs.o(i.check_addr) refers to fs.o(.data) for .data
    fs.o(i.fs_init) refers to fs.o(i.fs_spif_read) for fs_spif_read
    fs.o(i.fs_init) refers to fs.o(i.fs_spif_write) for fs_spif_write
    fs.o(i.fs_init) refers to fs.o(i.fs_search_items) for fs_search_items
    fs.o(i.fs_init) refers to fs.o(.data) for .data
    fs.o(i.fs_init) refers to fs.o(.bss) for .bss
    fs.o(i.fs_search_items) refers to fs.o(i.fs_spif_read) for fs_spif_read
    fs.o(i.fs_search_items) refers to fs.o(.bss) for .bss
    fs.o(i.fs_search_items) refers to fs.o(.data) for .data
    fs.o(i.fs_spif_read) refers to flash.o(i.hal_flash_read) for hal_flash_read
    fs.o(i.fs_spif_read) refers to fs.o(.data) for .data
    fs.o(i.fs_spif_write) refers to patch.o(i.__psr) for __psr
    fs.o(i.fs_spif_write) refers to flash.o(i.hal_flash_write) for hal_flash_write
    fs.o(i.fs_spif_write) refers to fs.o(.data) for .data
    fs.o(i.hal_fs_format) refers to patch.o(i.__psr) for __psr
    fs.o(i.hal_fs_format) refers to flash.o(i.hal_flash_erase_sector) for hal_flash_erase_sector
    fs.o(i.hal_fs_format) refers to fs.o(i.hal_fs_init) for hal_fs_init
    fs.o(i.hal_fs_format) refers to fs.o(.data) for .data
    fs.o(i.hal_fs_garbage_collect) refers to patch.o(i.__psr) for __psr
    fs.o(i.hal_fs_garbage_collect) refers to fs.o(i.fs_spif_write) for fs_spif_write
    fs.o(i.hal_fs_garbage_collect) refers to fs.o(i.fs_spif_read) for fs_spif_read
    fs.o(i.hal_fs_garbage_collect) refers to flash.o(i.hal_flash_erase_sector) for hal_flash_erase_sector
    fs.o(i.hal_fs_garbage_collect) refers to fs.o(i.fs_init) for fs_init
    fs.o(i.hal_fs_garbage_collect) refers to fs.o(i.check_addr) for check_addr
    fs.o(i.hal_fs_garbage_collect) refers to fs.o(.data) for .data
    fs.o(i.hal_fs_garbage_collect) refers to fs.o(.bss) for .bss
    fs.o(i.hal_fs_get_free_size) refers to fs.o(.data) for .data
    fs.o(i.hal_fs_get_free_size) refers to fs.o(.bss) for .bss
    fs.o(i.hal_fs_get_garbage_size) refers to fs.o(i.fs_search_items) for fs_search_items
    fs.o(i.hal_fs_get_garbage_size) refers to fs.o(.data) for .data
    fs.o(i.hal_fs_init) refers to fs.o(i.fs_init) for fs_init
    fs.o(i.hal_fs_init) refers to fs.o(.data) for .data
    fs.o(i.hal_fs_initialized) refers to fs.o(.data) for .data
    fs.o(i.hal_fs_item_del) refers to patch.o(i.__psr) for __psr
    fs.o(i.hal_fs_item_del) refers to fs.o(i.hal_fs_item_find_id) for hal_fs_item_find_id
    fs.o(i.hal_fs_item_del) refers to fs.o(i.fs_spif_read) for fs_spif_read
    fs.o(i.hal_fs_item_del) refers to fs.o(i.fs_spif_write) for fs_spif_write
    fs.o(i.hal_fs_item_del) refers to fs.o(i.check_addr) for check_addr
    fs.o(i.hal_fs_item_del) refers to fs.o(.data) for .data
    fs.o(i.hal_fs_item_del) refers to fs.o(.bss) for .bss
    fs.o(i.hal_fs_item_find_id) refers to fs.o(i.fs_search_items) for fs_search_items
    fs.o(i.hal_fs_item_find_id) refers to fs.o(.data) for .data
    fs.o(i.hal_fs_item_read) refers to patch.o(i.__psr) for __psr
    fs.o(i.hal_fs_item_read) refers to fs.o(i.hal_fs_item_find_id) for hal_fs_item_find_id
    fs.o(i.hal_fs_item_read) refers to fs.o(i.fs_spif_read) for fs_spif_read
    fs.o(i.hal_fs_item_read) refers to fs.o(i.check_addr) for check_addr
    fs.o(i.hal_fs_item_read) refers to fs.o(.data) for .data
    fs.o(i.hal_fs_item_read) refers to fs.o(.bss) for .bss
    fs.o(i.hal_fs_item_write) refers to patch.o(i.__psr) for __psr
    fs.o(i.hal_fs_item_write) refers to fs.o(i.hal_fs_get_free_size) for hal_fs_get_free_size
    fs.o(i.hal_fs_item_write) refers to fs.o(i.hal_fs_item_find_id) for hal_fs_item_find_id
    fs.o(i.hal_fs_item_write) refers to fs.o(i.hal_fs_item_del) for hal_fs_item_del
    fs.o(i.hal_fs_item_write) refers to fs.o(i.fs_spif_write) for fs_spif_write
    fs.o(i.hal_fs_item_write) refers to fs.o(.data) for .data
    fs.o(i.hal_fs_item_write) refers to fs.o(.bss) for .bss
    seekfree_iic.o(i.read_ch) refers to gpio.o(i.hal_gpio_write) for hal_gpio_write
    seekfree_iic.o(i.read_ch) refers to seekfree_iic.o(i.simiic_delay) for simiic_delay
    seekfree_iic.o(i.read_ch) refers to gpio.o(i.hal_gpio_pin_init) for hal_gpio_pin_init
    seekfree_iic.o(i.read_ch) refers to gpio.o(i.hal_gpio_pull_set) for hal_gpio_pull_set
    seekfree_iic.o(i.read_ch) refers to gpio.o(i.hal_gpio_read) for hal_gpio_read
    seekfree_iic.o(i.read_ch) refers to seekfree_iic.o(i.simiic_sendack) for simiic_sendack
    seekfree_iic.o(i.sccb_waitack) refers to gpio.o(i.hal_gpio_write) for hal_gpio_write
    seekfree_iic.o(i.sccb_waitack) refers to seekfree_iic.o(i.simiic_delay) for simiic_delay
    seekfree_iic.o(i.sccb_waitack) refers to gpio.o(i.hal_gpio_pin_init) for hal_gpio_pin_init
    seekfree_iic.o(i.sccb_waitack) refers to gpio.o(i.hal_gpio_pull_set) for hal_gpio_pull_set
    seekfree_iic.o(i.sccb_waitack) refers to seekfree_iic.o(i.simiic_stop) for simiic_stop
    seekfree_iic.o(i.sccb_waitack) refers to gpio.o(i.hal_gpio_read) for hal_gpio_read
    seekfree_iic.o(i.send_ch) refers to gpio.o(i.hal_gpio_write) for hal_gpio_write
    seekfree_iic.o(i.send_ch) refers to seekfree_iic.o(i.simiic_delay) for simiic_delay
    seekfree_iic.o(i.send_ch) refers to seekfree_iic.o(i.sccb_waitack) for sccb_waitack
    seekfree_iic.o(i.simiic_delay) refers to seekfree_iic.o(.data) for .data
    seekfree_iic.o(i.simiic_init) refers to gpio.o(i.hal_gpio_write) for hal_gpio_write
    seekfree_iic.o(i.simiic_read_reg) refers to seekfree_iic.o(i.simiic_start) for simiic_start
    seekfree_iic.o(i.simiic_read_reg) refers to seekfree_iic.o(i.send_ch) for send_ch
    seekfree_iic.o(i.simiic_read_reg) refers to seekfree_iic.o(i.simiic_stop) for simiic_stop
    seekfree_iic.o(i.simiic_read_reg) refers to seekfree_iic.o(i.read_ch) for read_ch
    seekfree_iic.o(i.simiic_read_regs) refers to seekfree_iic.o(i.simiic_start) for simiic_start
    seekfree_iic.o(i.simiic_read_regs) refers to seekfree_iic.o(i.send_ch) for send_ch
    seekfree_iic.o(i.simiic_read_regs) refers to seekfree_iic.o(i.simiic_stop) for simiic_stop
    seekfree_iic.o(i.simiic_read_regs) refers to seekfree_iic.o(i.read_ch) for read_ch
    seekfree_iic.o(i.simiic_sendack) refers to gpio.o(i.hal_gpio_write) for hal_gpio_write
    seekfree_iic.o(i.simiic_sendack) refers to seekfree_iic.o(i.simiic_delay) for simiic_delay
    seekfree_iic.o(i.simiic_start) refers to gpio.o(i.hal_gpio_write) for hal_gpio_write
    seekfree_iic.o(i.simiic_start) refers to seekfree_iic.o(i.simiic_delay) for simiic_delay
    seekfree_iic.o(i.simiic_stop) refers to gpio.o(i.hal_gpio_write) for hal_gpio_write
    seekfree_iic.o(i.simiic_stop) refers to seekfree_iic.o(i.simiic_delay) for simiic_delay
    seekfree_iic.o(i.simiic_write_reg) refers to seekfree_iic.o(i.simiic_start) for simiic_start
    seekfree_iic.o(i.simiic_write_reg) refers to seekfree_iic.o(i.send_ch) for send_ch
    seekfree_iic.o(i.simiic_write_reg) refers to seekfree_iic.o(i.simiic_stop) for simiic_stop
    seekfree_iic.o(i.simiic_write_regs) refers to seekfree_iic.o(i.simiic_start) for simiic_start
    seekfree_iic.o(i.simiic_write_regs) refers to seekfree_iic.o(i.send_ch) for send_ch
    seekfree_iic.o(i.simiic_write_regs) refers to seekfree_iic.o(i.simiic_stop) for simiic_stop
    iic_1.o(i.IIC_Ack) refers to gpio.o(i.hal_gpio_write) for hal_gpio_write
    iic_1.o(i.IIC_Ack) refers to iic_1.o(i.SDA_OUT) for SDA_OUT
    iic_1.o(i.IIC_Ack) refers to iic_1.o(i.delay_us) for delay_us
    iic_1.o(i.IIC_NAck) refers to gpio.o(i.hal_gpio_write) for hal_gpio_write
    iic_1.o(i.IIC_NAck) refers to iic_1.o(i.SDA_OUT) for SDA_OUT
    iic_1.o(i.IIC_NAck) refers to iic_1.o(i.delay_us) for delay_us
    iic_1.o(i.IIC_Read_Byte) refers to iic_1.o(i.SDA_IN) for SDA_IN
    iic_1.o(i.IIC_Read_Byte) refers to gpio.o(i.hal_gpio_write) for hal_gpio_write
    iic_1.o(i.IIC_Read_Byte) refers to iic_1.o(i.delay_us) for delay_us
    iic_1.o(i.IIC_Read_Byte) refers to gpio.o(i.hal_gpio_read) for hal_gpio_read
    iic_1.o(i.IIC_Send_Byte) refers to iic_1.o(i.SDA_OUT) for SDA_OUT
    iic_1.o(i.IIC_Send_Byte) refers to gpio.o(i.hal_gpio_write) for hal_gpio_write
    iic_1.o(i.IIC_Send_Byte) refers to iic_1.o(i.delay_us) for delay_us
    iic_1.o(i.IIC_Start) refers to iic_1.o(i.SDA_OUT) for SDA_OUT
    iic_1.o(i.IIC_Start) refers to gpio.o(i.hal_gpio_write) for hal_gpio_write
    iic_1.o(i.IIC_Start) refers to iic_1.o(i.delay_us) for delay_us
    iic_1.o(i.IIC_Stop) refers to iic_1.o(i.SDA_OUT) for SDA_OUT
    iic_1.o(i.IIC_Stop) refers to gpio.o(i.hal_gpio_write) for hal_gpio_write
    iic_1.o(i.IIC_Stop) refers to iic_1.o(i.delay_us) for delay_us
    iic_1.o(i.IIC_Wait_Ack) refers to gpio.o(i.hal_gpio_write) for hal_gpio_write
    iic_1.o(i.IIC_Wait_Ack) refers to iic_1.o(i.delay_us) for delay_us
    iic_1.o(i.IIC_Wait_Ack) refers to iic_1.o(i.SDA_IN) for SDA_IN
    iic_1.o(i.IIC_Wait_Ack) refers to my_printf.o(i.dbg_printf) for dbg_printf
    iic_1.o(i.IIC_Wait_Ack) refers to gpio.o(i.hal_gpio_read) for hal_gpio_read
    iic_1.o(i.SDA_IN) refers to gpio.o(i.hal_gpio_pin_init) for hal_gpio_pin_init
    iic_1.o(i.SDA_IN) refers to gpio.o(i.hal_gpio_pull_set) for hal_gpio_pull_set
    iic_1.o(i.SDA_OUT) refers to gpio.o(i.hal_gpio_pin_init) for hal_gpio_pin_init
    iic_1.o(i.delay_ms) refers to clock.o(i.WaitMs) for WaitMs
    iic_1.o(i.delay_us) refers to clock.o(i.WaitUs) for WaitUs
    iic_1.o(i.i2c_init) refers to gpio.o(i.hal_gpio_pin_init) for hal_gpio_pin_init
    iic_1.o(i.i2c_init) refers to gpio.o(i.hal_gpio_pull_set) for hal_gpio_pull_set
    qma7981.o(i.qma7981_clear) refers to qma7981.o(i.qma_write_reg) for qma_write_reg
    qma7981.o(i.qma7981_init) refers to qma7981.o(i.qma_write_reg) for qma_write_reg
    qma7981.o(i.qma7981_init) refers to iic_1.o(i.delay_ms) for delay_ms
    qma7981.o(i.qma7981_read_step) refers to qma7981.o(i.qma_read_reg) for qma_read_reg
    qma7981.o(i.qma_read_reg) refers to iic_1.o(i.IIC_Start) for IIC_Start
    qma7981.o(i.qma_read_reg) refers to iic_1.o(i.IIC_Send_Byte) for IIC_Send_Byte
    qma7981.o(i.qma_read_reg) refers to iic_1.o(i.IIC_Wait_Ack) for IIC_Wait_Ack
    qma7981.o(i.qma_read_reg) refers to iic_1.o(i.IIC_Stop) for IIC_Stop
    qma7981.o(i.qma_read_reg) refers to iic_1.o(i.IIC_Read_Byte) for IIC_Read_Byte
    qma7981.o(i.qma_read_reg) refers to iic_1.o(i.IIC_NAck) for IIC_NAck
    qma7981.o(i.qma_read_regs) refers to iic_1.o(i.IIC_Start) for IIC_Start
    qma7981.o(i.qma_read_regs) refers to iic_1.o(i.IIC_Send_Byte) for IIC_Send_Byte
    qma7981.o(i.qma_read_regs) refers to iic_1.o(i.IIC_Wait_Ack) for IIC_Wait_Ack
    qma7981.o(i.qma_read_regs) refers to iic_1.o(i.IIC_Stop) for IIC_Stop
    qma7981.o(i.qma_read_regs) refers to iic_1.o(i.IIC_Read_Byte) for IIC_Read_Byte
    qma7981.o(i.qma_read_regs) refers to iic_1.o(i.IIC_Ack) for IIC_Ack
    qma7981.o(i.qma_read_regs) refers to iic_1.o(i.IIC_NAck) for IIC_NAck
    qma7981.o(i.qma_write_reg) refers to iic_1.o(i.IIC_Start) for IIC_Start
    qma7981.o(i.qma_write_reg) refers to iic_1.o(i.IIC_Send_Byte) for IIC_Send_Byte
    qma7981.o(i.qma_write_reg) refers to iic_1.o(i.IIC_Wait_Ack) for IIC_Wait_Ack
    qma7981.o(i.qma_write_reg) refers to iic_1.o(i.IIC_Stop) for IIC_Stop
    qma7981.o(i.read_accel_axis) refers to qma7981.o(i.qma_read_regs) for qma_read_regs
    jump_table.o(.emb_text) refers to jump_table.o(i._hard_fault) for _hard_fault
    jump_table.o(i._hard_fault) refers to jump_table.o(.data) for .data
    jump_table.o(jump_table_mem_area) refers to osal_phyrf.o(i.osalInitTasks) for osalInitTasks
    jump_table.o(jump_table_mem_area) refers to osal_phyrf.o(.constdata) for tasksArr
    jump_table.o(jump_table_mem_area) refers to osal_phyrf.o(.constdata) for tasksCnt
    jump_table.o(jump_table_mem_area) refers to osal_phyrf.o(.data) for tasksEvents
    jump_table.o(jump_table_mem_area) refers (Weak) to pwrmgr.o(i.hal_pwrmgr_sleep_process) for hal_pwrmgr_sleep_process
    jump_table.o(jump_table_mem_area) refers (Weak) to pwrmgr.o(i.hal_pwrmgr_wakeup_process) for hal_pwrmgr_wakeup_process
    jump_table.o(jump_table_mem_area) refers to rf_phy_driver.o(i.rf_phy_ini) for rf_phy_ini
    jump_table.o(jump_table_mem_area) refers to jump_table.o(.emb_text) for hard_fault
    jump_table.o(jump_table_mem_area) refers (Weak) to uart.o(_section_sram_code_) for hal_UART0_IRQHandler
    startup_armcm0.o(RESET) refers to startup_armcm0.o(STACK) for __initial_sp
    startup_armcm0.o(RESET) refers to startup_armcm0.o(.text) for Reset_Handler
    startup_armcm0.o(.text) refers to system_armcm0.o(i.SystemInit) for SystemInit
    startup_armcm0.o(.text) refers to entry.o(.ARM.Collect$$$$00000000) for __main
    system_armcm0.o(i.SystemCoreClockUpdate) refers to system_armcm0.o(.data) for .data
    system_armcm0.o(i.SystemInit) refers to system_armcm0.o(.data) for .data
    patch.o(_section_xip_code_) refers to patch.o(.data) for .data
    patch.o(_section_xip_code_) refers to startup_armcm0.o(STACK) for __initial_sp
    patch.o(_section_xip_code_) refers to main.o(.data) for g_clk32K_config
    patch.o(_section_xip_code_) refers to patch.o(i.ll_hw_go1) for ll_hw_go1
    patch.o(_section_xip_code_) refers to patch.o(i.LL_IRQHandler1) for LL_IRQHandler1
    patch.o(_section_xip_code_) refers to rf_phy_driver.o(i.rf_calibrate1) for rf_calibrate1
    patch.o(_section_xip_code_) refers to rf_phy_driver.o(i.rf_phy_change_cfg0) for rf_phy_change_cfg0
    patch.o(_section_xip_code_) refers to patch.o(i.LL_ENC_AES128_Encrypt1) for LL_ENC_AES128_Encrypt1
    patch.o(_section_xip_code_) refers to patch.o(i.LL_ENC_Encrypt1) for LL_ENC_Encrypt1
    patch.o(_section_xip_code_) refers to patch.o(i.LL_ENC_Decrypt1) for LL_ENC_Decrypt1
    patch.o(_section_xip_code_) refers to patch.o(i.enterSleepProcess1) for enterSleepProcess1
    patch.o(_section_xip_code_) refers to patch.o(i.config_RTC1) for config_RTC1
    patch.o(_section_xip_code_) refers to patch.o(i.wakeup_init1) for wakeup_init1
    patch.o(_section_xip_code_) refers to patch.o(i.wakeupProcess1) for wakeupProcess1
    patch.o(_section_xip_code_) refers to patch.o(i.l2capPocessFragmentTxData) for l2capPocessFragmentTxData
    patch.o(_section_xip_code_) refers to patch.o(i.LL_SetDataLengh1) for LL_SetDataLengh1
    patch.o(_section_xip_code_) refers to patch.o(i.llProcessTxData1) for llProcessTxData1
    patch.o(_section_xip_code_) refers to patch.o(i.ll_generateTxBuffer1) for ll_generateTxBuffer1
    patch.o(_section_xip_code_) refers to patch.o(i.ll_adptive_adj_next_time1) for ll_adptive_adj_next_time1
    patch.o(_section_xip_code_) refers to patch.o(i.llConnTerminate1) for llConnTerminate1
    patch.o(_section_xip_code_) refers to patch.o(i.LL_set_default_conn_params1) for LL_set_default_conn_params1
    patch.o(_section_xip_code_) refers to patch.o(.bss) for .bss
    patch.o(_section_xip_code_) refers to phy_sec_ext.o(.data) for s_company_id
    patch.o(i.HCI_LE_ConnUpdateCmd) refers to patch.o(i.LL_ConnUpdate1) for LL_ConnUpdate1
    patch.o(i.HCI_LE_LtkReqNegReplyCmd) refers to patch.o(i.LL_EncLtkNegReply) for LL_EncLtkNegReply
    patch.o(i.HCI_LE_LtkReqReplyCmd) refers to patch.o(i.LL_EncLtkReply) for LL_EncLtkReply
    patch.o(i.LL_CreateConn1) refers to patch.o(.data) for .data
    patch.o(i.LL_IRQHandler1) refers to patch.o(i.ll_processBasicIRQ_SRX) for ll_processBasicIRQ_SRX
    patch.o(i.LL_IRQHandler1) refers to patch.o(i.ll_processBasicIRQ_secondaryAdvTRX) for ll_processBasicIRQ_secondaryAdvTRX
    patch.o(i.LL_IRQHandler1) refers to patch.o(i.ll_processBasicIRQ_ScanTRX) for ll_processBasicIRQ_ScanTRX
    patch.o(i.LL_IRQHandler1) refers to patch.o(i.ll_processBasicIRQ_secondaryScanSRX) for ll_processBasicIRQ_secondaryScanSRX
    patch.o(i.LL_IRQHandler1) refers to patch.o(i.ll_processBasicIRQ_secondaryInitSRX) for ll_processBasicIRQ_secondaryInitSRX
    patch.o(i.LL_PLUS_GetCurrentRSSI) refers to rf_phy_driver.o(i.rf_phy_get_pktFoot) for rf_phy_get_pktFoot
    patch.o(i.LL_PLUS_LoadMACFromChipMAddr) refers to flash.o(i.check_chip_mAddr) for check_chip_mAddr
    patch.o(i.LL_PLUS_LoadMACFromChipMAddr) refers to flash.o(.data) for g_chipMAddr
    patch.o(i.LL_SetAdvControl1) refers to patch.o(.data) for .data
    patch.o(i.LL_SetScanControl1) refers to patch.o(.data) for .data
    patch.o(i.LL_set_default_conn_params1) refers to patch.o(.data) for .data
    patch.o(i.check_16MXtal_by_rcTracking) refers to pwrmgr.o(_section_sram_code_) for hal_pwrmgr_enter_sleep_rtc_reset
    patch.o(i.check_16MXtal_by_rcTracking) refers to patch.o(.data) for .data
    patch.o(i.check_96MXtal_by_rcTracking) refers to patch.o(.data) for .data
    patch.o(i.enterSleepProcess1) refers to patch.o(i.rc32k_cap_cal) for rc32k_cap_cal
    patch.o(i.enterSleepProcess1) refers to patch.o(.data) for .data
    patch.o(i.hal_rom_boot_init) refers to phy_sec_ext.o(i._rom_sec_boot_init) for _rom_sec_boot_init
    patch.o(i.llCalcMaxScanTime1) refers to patch.o(i.read_LL_remainder_time1) for read_LL_remainder_time1
    patch.o(i.llCalcMaxScanTime1) refers to patch.o(.data) for .data
    patch.o(i.llProcessMasterControlProcedures1) refers to patch.o(i.llSetupStartEncRsp) for llSetupStartEncRsp
    patch.o(i.llProcessSlaveControlProcedures1) refers to patch.o(i.llSetupStartEncRsp) for llSetupStartEncRsp
    patch.o(i.llSecAdvAllow1) refers to patch.o(i.read_LL_remainder_time1) for read_LL_remainder_time1
    patch.o(i.llSecAdvAllow1) refers to patch.o(.data) for .data
    patch.o(i.llSetupNextSlaveEvent1) refers to patch.o(.data) for .data
    patch.o(i.llSetupSecAdvEvt1) refers to rf_phy_driver.o(i.rf_phy_change_cfg0) for rf_phy_change_cfg0
    patch.o(i.llSetupSecScan1) refers to rf_phy_driver.o(i.rf_phy_change_cfg0) for rf_phy_change_cfg0
    patch.o(i.ll_adptive_adj_next_time1) refers to patch.o(.data) for .data
    patch.o(i.ll_hw_go1) refers to patch.o(.data) for .data
    patch.o(i.ll_patch_master) refers to patch.o(i.LL_SetAdvParam1) for LL_SetAdvParam1
    patch.o(i.ll_patch_master) refers to patch.o(i.LL_SetAdvControl1) for LL_SetAdvControl1
    patch.o(i.ll_patch_master) refers to patch.o(i.llMasterEvt_TaskEndOk1) for llMasterEvt_TaskEndOk1
    patch.o(i.ll_patch_master) refers to patch.o(i.LL_SetScanParam1) for LL_SetScanParam1
    patch.o(i.ll_patch_master) refers to patch.o(i.LL_SetScanControl1) for LL_SetScanControl1
    patch.o(i.ll_patch_master) refers to patch.o(i.LL_CreateConn1) for LL_CreateConn1
    patch.o(i.ll_patch_master) refers to patch.o(i.LL_StartEncrypt1) for LL_StartEncrypt1
    patch.o(i.ll_patch_master) refers to patch.o(i.LL_ENC_Decrypt1) for LL_ENC_Decrypt1
    patch.o(i.ll_patch_master) refers to patch.o(i.llProcessMasterControlProcedures1) for llProcessMasterControlProcedures1
    patch.o(i.ll_patch_master) refers to patch.o(i.llProcessSlaveControlProcedures1) for llProcessSlaveControlProcedures1
    patch.o(i.ll_patch_master) refers to patch.o(i.ll_processBasicIRQ_SRX0) for ll_processBasicIRQ_SRX0
    patch.o(i.ll_patch_master) refers to patch.o(i.ll_processBasicIRQ_ScanTRX0) for ll_processBasicIRQ_ScanTRX0
    patch.o(i.ll_patch_master) refers to patch.o(i.llSetupSecScan1) for llSetupSecScan1
    patch.o(i.ll_patch_multi) refers to patch.o(i.ll_patch_slave) for ll_patch_slave
    patch.o(i.ll_patch_multi) refers to patch.o(i.ll_patch_master) for ll_patch_master
    patch.o(i.ll_patch_multi) refers to patch.o(i.ll_scheduler1) for ll_scheduler1
    patch.o(i.ll_patch_multi) refers to patch.o(i.ll_processBasicIRQ_secondaryAdvTRX0) for ll_processBasicIRQ_secondaryAdvTRX0
    patch.o(i.ll_patch_multi) refers to patch.o(i.ll_processBasicIRQ_secondaryScanSRX0) for ll_processBasicIRQ_secondaryScanSRX0
    patch.o(i.ll_patch_multi) refers to patch.o(i.ll_processBasicIRQ_secondaryInitSRX0) for ll_processBasicIRQ_secondaryInitSRX0
    patch.o(i.ll_patch_slave) refers to patch.o(i.LL_SetAdvParam1) for LL_SetAdvParam1
    patch.o(i.ll_patch_slave) refers to patch.o(i.llCalcMaxScanTime1) for llCalcMaxScanTime1
    patch.o(i.ll_patch_slave) refers to patch.o(i.llSecAdvAllow1) for llSecAdvAllow1
    patch.o(i.ll_patch_slave) refers to patch.o(i.LL_SetAdvControl1) for LL_SetAdvControl1
    patch.o(i.ll_patch_slave) refers to patch.o(i.llSetupSecAdvEvt1) for llSetupSecAdvEvt1
    patch.o(i.ll_patch_slave) refers to patch.o(i.ll_scheduler2) for ll_scheduler2
    patch.o(i.ll_patch_slave) refers to patch.o(i.llSetupNextSlaveEvent1) for llSetupNextSlaveEvent1
    patch.o(i.ll_processBasicIRQ_SRX0) refers to patch.o(i.ll_hw_read_rfifo1) for ll_hw_read_rfifo1
    patch.o(i.ll_processBasicIRQ_SRX0) refers to patch.o(.data) for .data
    patch.o(i.ll_processBasicIRQ_ScanTRX0) refers to patch.o(i.ll_hw_read_rfifo1) for ll_hw_read_rfifo1
    patch.o(i.ll_processBasicIRQ_ScanTRX0) refers to patch.o(i.llAdjBoffUpperLimitFailure1) for llAdjBoffUpperLimitFailure1
    patch.o(i.ll_processBasicIRQ_secondaryAdvTRX0) refers to patch.o(.data) for .data
    patch.o(i.ll_processBasicIRQ_secondaryInitSRX0) refers to patch.o(i.ll_hw_read_rfifo1) for ll_hw_read_rfifo1
    patch.o(i.ll_processBasicIRQ_secondaryInitSRX0) refers to patch.o(.data) for .data
    patch.o(i.ll_processBasicIRQ_secondaryScanSRX0) refers to patch.o(i.ll_hw_read_rfifo1) for ll_hw_read_rfifo1
    patch.o(i.ll_processBasicIRQ_secondaryScanSRX0) refers to patch.o(.data) for .data
    patch.o(i.ll_scheduler1) refers to patch.o(.data) for .data
    patch.o(i.ll_scheduler2) refers to patch.o(.data) for .data
    patch.o(i.osal_memory_statics) refers to main.o(.bss) for g_largeHeap
    patch.o(i.wakeupProcess1) refers to patch.o(i.wakeup_init1) for wakeup_init1
    patch.o(i.wakeupProcess1) refers to rf_phy_driver.o(i.rf_phy_ini) for rf_phy_ini
    patch.o(i.wakeupProcess1) refers to patch.o(.data) for .data
    patch.o(i.wakeup_init1) refers to phy_sec_ext.o(i.efuse_init) for efuse_init
    patch.o(i.wakeup_init1) refers to patch.o(i.__wdt_init) for __wdt_init
    patch.o(i.wakeup_init1) refers to patch.o(i.check_16MXtal_by_rcTracking) for check_16MXtal_by_rcTracking
    patch.o(i.wakeup_init1) refers to patch.o(i.check_96MXtal_by_rcTracking) for check_96MXtal_by_rcTracking
    patch.o(i.wakeup_init1) refers to patch.o(i.NVIC_EnableIRQ) for NVIC_EnableIRQ
    patch.o(i.wakeup_init1) refers to patch.o(.data) for .data
    rf_phy_driver.o(i.DTM_UART_IRQHandler) refers to rf_phy_driver.o(.data) for .data
    rf_phy_driver.o(i.DTM_UART_IRQHandler) refers to rf_phy_driver.o(.bss) for .bss
    rf_phy_driver.o(i.rf_calibrate1) refers to rf_phy_driver.o(i.rf_tpCal_gen_cap_arrary) for rf_tpCal_gen_cap_arrary
    rf_phy_driver.o(i.rf_calibrate1) refers to rf_phy_driver.o(i.rf_rxDcoc_cfg) for rf_rxDcoc_cfg
    rf_phy_driver.o(i.rf_calibrate1) refers to rf_phy_driver.o(i.rc32k_calibration) for rc32k_calibration
    rf_phy_driver.o(i.rf_phy_direct_test) refers to my_printf.o(i.dbg_printf_init) for dbg_printf_init
    rf_phy_driver.o(i.rf_phy_direct_test) refers to my_printf.o(i.dbg_printf) for dbg_printf
    rf_phy_driver.o(i.rf_phy_direct_test) refers to rf_phy_driver.o(i.rf_phy_dtm_cmd_parse) for rf_phy_dtm_cmd_parse
    rf_phy_driver.o(i.rf_phy_direct_test) refers to rf_phy_driver.o(i.rf_phy_dtm_evt_send) for rf_phy_dtm_evt_send
    rf_phy_driver.o(i.rf_phy_direct_test) refers to rf_phy_driver.o(i.rf_phy_dtm_trigged) for rf_phy_dtm_trigged
    rf_phy_driver.o(i.rf_phy_direct_test) refers to rf_phy_driver.o(i.rf_phy_get_pktFoot) for rf_phy_get_pktFoot
    rf_phy_driver.o(i.rf_phy_direct_test) refers to clock.o(i.WaitUs) for WaitUs
    rf_phy_driver.o(i.rf_phy_direct_test) refers to rf_phy_driver.o(i.DTM_UART_IRQHandler) for DTM_UART_IRQHandler
    rf_phy_driver.o(i.rf_phy_direct_test) refers to rf_phy_driver.o(.data) for .data
    rf_phy_driver.o(i.rf_phy_direct_test) refers to rf_phy_driver.o(.bss) for .bss
    rf_phy_driver.o(i.rf_phy_dtm_ble_pkt_gen) refers to rf_phy_driver.o(i.gen_pn_prbs9) for gen_pn_prbs9
    rf_phy_driver.o(i.rf_phy_dtm_cmd_parse) refers to gpio.o(i.hal_gpio_pin2pin3_control) for hal_gpio_pin2pin3_control
    rf_phy_driver.o(i.rf_phy_dtm_cmd_parse) refers to rf_phy_driver.o(.data) for .data
    rf_phy_driver.o(i.rf_phy_dtm_evt_send) refers to uart.o(i.hal_uart_send_byte) for hal_uart_send_byte
    rf_phy_driver.o(i.rf_phy_dtm_ext_rx_demod_burst) refers to rf_phy_driver.o(i.rf_phy_dtm_init) for rf_phy_dtm_init
    rf_phy_driver.o(i.rf_phy_dtm_ext_rx_demod_burst) refers to rf_phy_driver.o(i.rf_phy_dtm_trigged) for rf_phy_dtm_trigged
    rf_phy_driver.o(i.rf_phy_dtm_ext_rx_demod_burst) refers to clock.o(i.hal_systick) for hal_systick
    rf_phy_driver.o(i.rf_phy_dtm_ext_rx_demod_burst) refers to rf_phy_driver.o(i.rf_phy_get_pktFoot) for rf_phy_get_pktFoot
    rf_phy_driver.o(i.rf_phy_dtm_ext_rx_demod_burst) refers to clock.o(i.hal_ms_intv) for hal_ms_intv
    rf_phy_driver.o(i.rf_phy_dtm_ext_rx_demod_burst) refers to rf_phy_driver.o(i.rf_phy_dtm_stop) for rf_phy_dtm_stop
    rf_phy_driver.o(i.rf_phy_dtm_ext_tx_mod_burst) refers to rf_phy_driver.o(i.rf_phy_dtm_init) for rf_phy_dtm_init
    rf_phy_driver.o(i.rf_phy_dtm_ext_tx_mod_burst) refers to rf_phy_driver.o(i.rf_phy_dtm_trigged) for rf_phy_dtm_trigged
    rf_phy_driver.o(i.rf_phy_dtm_ext_tx_mod_burst) refers to rf_phy_driver.o(i.rf_phy_dtm_stop) for rf_phy_dtm_stop
    rf_phy_driver.o(i.rf_phy_dtm_ext_tx_modulation) refers to rf_phy_driver.o(i.rf_phy_dtm_init) for rf_phy_dtm_init
    rf_phy_driver.o(i.rf_phy_dtm_ext_tx_modulation) refers to rf_phy_driver.o(i.rf_phy_dtm_trigged) for rf_phy_dtm_trigged
    rf_phy_driver.o(i.rf_phy_dtm_ext_tx_modulation) refers to clock.o(i.WaitUs) for WaitUs
    rf_phy_driver.o(i.rf_phy_dtm_ext_tx_modulation) refers to rf_phy_driver.o(i.rf_phy_dtm_stop) for rf_phy_dtm_stop
    rf_phy_driver.o(i.rf_phy_dtm_ext_tx_singleTone) refers to rf_phy_driver.o(i.rf_phy_dtm_init) for rf_phy_dtm_init
    rf_phy_driver.o(i.rf_phy_dtm_ext_tx_singleTone) refers to rf_phy_driver.o(i.rf_phy_dtm_trigged) for rf_phy_dtm_trigged
    rf_phy_driver.o(i.rf_phy_dtm_ext_tx_singleTone) refers to clock.o(i.WaitUs) for WaitUs
    rf_phy_driver.o(i.rf_phy_dtm_ext_tx_singleTone) refers to rf_phy_driver.o(i.rf_phy_dtm_stop) for rf_phy_dtm_stop
    rf_phy_driver.o(i.rf_phy_dtm_trigged) refers to rf_phy_driver.o(i.rf_phy_ana_cfg) for rf_phy_ana_cfg
    rf_phy_driver.o(i.rf_phy_dtm_trigged) refers to rf_phy_driver.o(i.rf_rxDcoc_cfg) for rf_rxDcoc_cfg
    rf_phy_driver.o(i.rf_phy_dtm_trigged) refers to rf_phy_driver.o(i.rf_phy_ini) for rf_phy_ini
    rf_phy_driver.o(i.rf_phy_dtm_trigged) refers to rf_phy_driver.o(i.rf_tpCal_cfg_avg) for rf_tpCal_cfg_avg
    rf_phy_driver.o(i.rf_phy_dtm_trigged) refers to rf_phy_driver.o(i.rf_phy_set_txPower) for rf_phy_set_txPower
    rf_phy_driver.o(i.rf_phy_dtm_trigged) refers to rf_phy_driver.o(i.rf_phy_dtm_ble_pkt_gen) for rf_phy_dtm_ble_pkt_gen
    rf_phy_driver.o(i.rf_phy_dtm_trigged) refers to rf_phy_driver.o(i.rf_phy_dtm_zigbee_pkt_gen) for rf_phy_dtm_zigbee_pkt_gen
    rf_phy_driver.o(i.rf_phy_ini) refers to rf_phy_driver.o(i.rf_phy_ana_cfg) for rf_phy_ana_cfg
    rf_phy_driver.o(i.rf_phy_ini) refers to rf_phy_driver.o(i.rf_phy_set_txPower) for rf_phy_set_txPower
    rf_phy_driver.o(i.rf_phy_ini) refers to rf_phy_driver.o(i.rf_phy_bb_cfg) for rf_phy_bb_cfg
    rf_phy_driver.o(i.rf_tpCal_cfg) refers to rf_phy_driver.o(i.rf_tp_cal) for rf_tp_cal
    rf_phy_driver.o(i.rf_tpCal_cfg_avg) refers to rf_phy_driver.o(i.rf_tp_cal) for rf_tp_cal
    rf_phy_driver.o(i.rf_tpCal_gen_cap_arrary) refers to rf_phy_driver.o(i.rf_tp_cal) for rf_tp_cal
    phy_sec_ext.o(i.PHY_Varify_Platform) refers to phy_sec_ext.o(.constdata) for .constdata
    phy_sec_ext.o(i._efuse_chip_version_check) refers to phy_sec_ext.o(i.finidv) for finidv
    phy_sec_ext.o(i._rom_sec_boot_init) refers to phy_sec_ext.o(i.efuse_init) for efuse_init
    phy_sec_ext.o(i._rom_sec_boot_init) refers to phy_sec_ext.o(i._efuse_chip_version_check) for _efuse_chip_version_check
    phy_sec_ext.o(i.finidv) refers to phy_sec_ext.o(.data) for .data
    phy_sec_ext.o(i.finidv) refers to phy_sec_ext.o(.bss) for .bss
    phy_sec_ext.o(i.verify_mic) refers to phy_sec_ext.o(i.finidv) for finidv
    phy_sec_ext.o(i.verify_mic) refers to aes.o(i.flash_load_parition) for flash_load_parition
    phy_sec_ext.o(.data) refers to phy_sec_ext.o(.conststring) for .conststring
    aes.o(i.KeyExpansion) refers to aes.o(i.getByte) for getByte
    aes.o(i.KeyExpansion) refers to aes.o(i.getBit) for getBit
    aes.o(i.KeyExpansion) refers to aes.o(.constdata) for .constdata
    aes.o(i.KeyExpansion) refers to aes.o(.data) for sBox
    aes.o(i.MixColumns) refers to aes.o(i.xtime) for xtime
    aes.o(i.SubBytes) refers to aes.o(.data) for sBox
    aes.o(i.flash_check_parition) refers to phy_sec_ext.o(.bss) for g_ota_sec_key
    aes.o(i.flash_load_parition) refers to phy_sec_ext.o(.bss) for g_ota_sec_key
    aes.o(i.is_crypto_app) refers to phy_sec_ext.o(i.finidv) for finidv
    aes.o(i.xtime) refers to aes.o(i.getBit) for getBit
    aes.o(i.xtime) refers to aes.o(i.getByte) for getByte
    entry.o(.ARM.Collect$$$$00000000) refers (Special) to entry10a.o(.ARM.Collect$$$$0000000F) for __rt_final_cpp
    entry.o(.ARM.Collect$$$$00000000) refers (Special) to entry11a.o(.ARM.Collect$$$$00000011) for __rt_final_exit
    entry.o(.ARM.Collect$$$$00000000) refers (Special) to entry12b.o(.ARM.Collect$$$$0000000E) for __rt_lib_shutdown_fini
    entry.o(.ARM.Collect$$$$00000000) refers (Special) to entry7b.o(.ARM.Collect$$$$00000008) for _main_clock
    entry.o(.ARM.Collect$$$$00000000) refers (Special) to entry8b.o(.ARM.Collect$$$$0000000A) for _main_cpp_init
    entry.o(.ARM.Collect$$$$00000000) refers (Special) to entry9a.o(.ARM.Collect$$$$0000000B) for _main_init
    entry.o(.ARM.Collect$$$$00000000) refers (Special) to entry5.o(.ARM.Collect$$$$00000004) for _main_scatterload
    entry.o(.ARM.Collect$$$$00000000) refers (Special) to entry2.o(.ARM.Collect$$$$00000001) for _main_stk
    fadd.o(.text) refers (Special) to iusefp.o(.text) for __I$use$fp
    fadd.o(.text) refers to fepilogue.o(.text) for _float_epilogue
    fmul.o(.text) refers (Special) to iusefp.o(.text) for __I$use$fp
    fdiv.o(.text) refers (Special) to iusefp.o(.text) for __I$use$fp
    fdiv.o(.text) refers to fepilogue.o(.text) for _float_round
    fscalb.o(.text) refers (Special) to iusefp.o(.text) for __I$use$fp
    dadd.o(.text) refers (Special) to iusefp.o(.text) for __I$use$fp
    dadd.o(.text) refers to llshl.o(.text) for __aeabi_llsl
    dadd.o(.text) refers to llsshr.o(.text) for __aeabi_lasr
    dadd.o(.text) refers to depilogue.o(.text) for _double_epilogue
    dmul.o(.text) refers (Special) to iusefp.o(.text) for __I$use$fp
    dmul.o(.text) refers to depilogue.o(.text) for _double_epilogue
    ddiv.o(.text) refers (Special) to iusefp.o(.text) for __I$use$fp
    ddiv.o(.text) refers to depilogue.o(.text) for _double_round
    dscalb.o(.text) refers (Special) to iusefp.o(.text) for __I$use$fp
    fflti.o(.text) refers (Special) to iusefp.o(.text) for __I$use$fp
    fflti.o(.text) refers to fepilogue.o(.text) for _float_epilogue
    ffltui.o(.text) refers (Special) to iusefp.o(.text) for __I$use$fp
    ffltui.o(.text) refers to fepilogue.o(.text) for _float_epilogue
    dflti.o(.text) refers (Special) to iusefp.o(.text) for __I$use$fp
    dflti.o(.text) refers to depilogue.o(.text) for _double_epilogue
    dfltui.o(.text) refers (Special) to iusefp.o(.text) for __I$use$fp
    dfltui.o(.text) refers to depilogue.o(.text) for _double_epilogue
    dfixui.o(.text) refers (Special) to iusefp.o(.text) for __I$use$fp
    dfixui.o(.text) refers to llushr.o(.text) for __aeabi_llsr
    f2d.o(.text) refers (Special) to iusefp.o(.text) for __I$use$fp
    d2f.o(.text) refers (Special) to iusefp.o(.text) for __I$use$fp
    d2f.o(.text) refers to fepilogue.o(.text) for _float_round
    entry2.o(.ARM.Collect$$$$00000001) refers to entry2.o(.ARM.Collect$$$$00002712) for __lit__00000000
    entry2.o(.ARM.Collect$$$$00002712) refers to startup_armcm0.o(STACK) for __initial_sp
    entry2.o(__vectab_stack_and_reset_area) refers to startup_armcm0.o(STACK) for __initial_sp
    entry2.o(__vectab_stack_and_reset_area) refers to entry.o(.ARM.Collect$$$$00000000) for __main
    entry5.o(.ARM.Collect$$$$00000004) refers to init.o(.text) for __scatterload
    entry9a.o(.ARM.Collect$$$$0000000B) refers to main.o(i.main) for main
    entry9b.o(.ARM.Collect$$$$0000000C) refers to main.o(i.main) for main
    depilogue.o(.text) refers to depilogue.o(i.__ARM_clz) for __ARM_clz
    depilogue.o(.text) refers to llshl.o(.text) for __aeabi_llsl
    depilogue.o(.text) refers to llushr.o(.text) for __aeabi_llsr
    init.o(.text) refers to entry5.o(.ARM.Collect$$$$00000004) for __main_after_scatterload


==============================================================================

Removing Unused input sections from the image.

    Removing main.o(.rev16_text), (4 bytes).
    Removing main.o(.revsh_text), (4 bytes).
    Removing main.o(.data), (1 bytes).
    Removing phy_rf.o(.rev16_text), (4 bytes).
    Removing phy_rf.o(.revsh_text), (4 bytes).
    Removing phy_rf.o(i.phy_hw_set_srx), (22 bytes).
    Removing phy_rf.o(i.phy_rf_rx), (2 bytes).
    Removing phy_rf.o(i.phy_rx_data_process), (2 bytes).
    Removing osal_phyrf.o(.rev16_text), (4 bytes).
    Removing osal_phyrf.o(.revsh_text), (4 bytes).
    Removing smart_rf_app.o(.rev16_text), (4 bytes).
    Removing smart_rf_app.o(.revsh_text), (4 bytes).
    Removing smart_rf_app.o(i.SmartRf_App_Init), (12 bytes).
    Removing smart_rf_app.o(i.SmartRf_App_ProcessEvent), (2 bytes).
    Removing smart_rf_app.o(.bss), (40 bytes).
    Removing smart_rf_app.o(.data), (1 bytes).
    Removing smart_rf_app.o(.data), (1 bytes).
    Removing smart_rf_app.o(.data), (1 bytes).
    Removing adc.o(.rev16_text), (4 bytes).
    Removing adc.o(.revsh_text), (4 bytes).
    Removing adc.o(i.hal_adc_clock_config), (40 bytes).
    Removing adc.o(i.hal_adc_config_channel), (672 bytes).
    Removing adc.o(i.hal_adc_start), (96 bytes).
    Removing adc.o(i.hal_adc_value_cal), (344 bytes).
    Removing adc.o(i.set_sampling_resolution), (176 bytes).
    Removing adc.o(.constdata), (36 bytes).
    Removing adc_demo.o(.rev16_text), (4 bytes).
    Removing adc_demo.o(.revsh_text), (4 bytes).
    Removing adc_demo.o(i.adc_ProcessEvent), (60 bytes).
    Removing adc_demo.o(i.my_hal_adc_value_cal), (80 bytes).
    Removing adc_demo.o(.bss), (768 bytes).
    Removing adc_demo.o(.bss), (116 bytes).
    Removing adc_demo.o(.data), (1 bytes).
    Removing my.o(.rev16_text), (4 bytes).
    Removing my.o(.revsh_text), (4 bytes).
    Removing my.o(i.change_adc), (72 bytes).
    Removing my.o(.bss), (100 bytes).
    Removing my.o(.data), (1 bytes).
    Removing my.o(.data), (2 bytes).
    Removing my.o(.data), (2 bytes).
    Removing uart.o(.rev16_text), (4 bytes).
    Removing uart.o(.revsh_text), (4 bytes).
    Removing uart.o(i.hal_uart_deinit), (48 bytes).
    Removing uart.o(i.hal_uart_get_tx_ready), (32 bytes).
    Removing uart.o(i.hal_uart_send_byte), (76 bytes).
    Removing uart.o(i.hal_uart_set_tx_buf), (72 bytes).
    Removing clock.o(.rev16_text), (4 bytes).
    Removing clock.o(.revsh_text), (4 bytes).
    Removing clock.o(_section_xip_code_), (80 bytes).
    Removing clock.o(i.hal_clk_gate_get), (36 bytes).
    Removing clock.o(i.hal_clk_get_modules_state), (18 bytes).
    Removing clock.o(i.hal_ms_intv), (40 bytes).
    Removing clock.o(i.hal_system_soft_reset), (36 bytes).
    Removing clock.o(i.hal_systick), (12 bytes).
    Removing gpio.o(.rev16_text), (4 bytes).
    Removing gpio.o(.revsh_text), (4 bytes).
    Removing gpio.o(i.hal_gpio_debug_mux), (28 bytes).
    Removing gpio.o(i.hal_gpio_ds_control), (28 bytes).
    Removing gpio.o(i.hal_gpio_fast_write), (28 bytes).
    Removing gpio.o(i.hal_gpioin_disable), (72 bytes).
    Removing gpio.o(i.hal_gpioin_register), (64 bytes).
    Removing gpio.o(i.hal_gpioin_set_flag), (16 bytes).
    Removing gpio.o(i.hal_gpioin_unregister), (36 bytes).
    Removing gpio.o(i.hal_gpioretention_unregister), (36 bytes).
    Removing timer.o(.rev16_text), (4 bytes).
    Removing timer.o(.revsh_text), (4 bytes).
    Removing timer.o(i.__NVIC_DisableIRQ), (32 bytes).
    Removing timer.o(i.__NVIC_EnableIRQ), (24 bytes).
    Removing timer.o(i.__NVIC_SetPriority), (68 bytes).
    Removing timer.o(i.hal_timer_deinit), (20 bytes).
    Removing timer.o(i.hal_timer_init), (44 bytes).
    Removing timer.o(i.hal_timer_mask_int), (36 bytes).
    Removing timer.o(i.hal_timer_set), (104 bytes).
    Removing timer.o(i.hal_timer_set_loadtimer), (22 bytes).
    Removing timer.o(i.hal_timer_sleep_handler), (20 bytes).
    Removing timer.o(i.hal_timer_stop), (72 bytes).
    Removing timer.o(i.hal_timer_stop_counter), (10 bytes).
    Removing timer.o(i.hal_timer_wakeup_handler), (20 bytes).
    Removing timer.o(.constdata), (8 bytes).
    Removing pwrmgr.o(.rev16_text), (4 bytes).
    Removing pwrmgr.o(.revsh_text), (4 bytes).
    Removing pwrmgr.o(_section_standby_code_), (360 bytes).
    Removing pwrmgr.o(i.hal_pwrmgr_LowCurrentLdo_disable), (20 bytes).
    Removing pwrmgr.o(i.hal_pwrmgr_clk_gate_config), (40 bytes).
    Removing pwrmgr.o(i.hal_pwrmgr_is_lock), (84 bytes).
    Removing pwrmgr.o(i.hal_pwrmgr_poweroff), (88 bytes).
    Removing pwrmgr.o(i.hal_pwrmgr_unregister), (72 bytes).
    Removing my_printf.o(.rev16_text), (4 bytes).
    Removing my_printf.o(.revsh_text), (4 bytes).
    Removing my_printf.o(i.my_dump_byte), (44 bytes).
    Removing flash.o(.rev16_text), (4 bytes).
    Removing flash.o(.revsh_text), (4 bytes).
    Removing flash.o(i.LOG_CHIP_MADDR), (172 bytes).
    Removing flash.o(i.check_chip_mAddr), (32 bytes).
    Removing flash.o(i.flash_write_word), (18 bytes).
    Removing flash.o(i.hal_flash_erase_all), (180 bytes).
    Removing flash.o(i.hal_flash_erase_block64), (184 bytes).
    Removing flash.o(i.hal_flash_erase_sector), (184 bytes).
    Removing flash.o(i.hal_flash_write), (172 bytes).
    Removing flash.o(i.hal_flash_write_by_dma), (172 bytes).
    Removing flash.o(i.read_chip_mAddr), (64 bytes).
    Removing fs.o(.rev16_text), (4 bytes).
    Removing fs.o(.revsh_text), (4 bytes).
    Removing fs.o(i.check_addr), (32 bytes).
    Removing fs.o(i.fs_init), (332 bytes).
    Removing fs.o(i.fs_search_items), (372 bytes).
    Removing fs.o(i.fs_spif_read), (44 bytes).
    Removing fs.o(i.fs_spif_write), (64 bytes).
    Removing fs.o(i.hal_fs_format), (76 bytes).
    Removing fs.o(i.hal_fs_garbage_collect), (264 bytes).
    Removing fs.o(i.hal_fs_get_free_size), (72 bytes).
    Removing fs.o(i.hal_fs_get_garbage_size), (56 bytes).
    Removing fs.o(i.hal_fs_init), (40 bytes).
    Removing fs.o(i.hal_fs_initialized), (12 bytes).
    Removing fs.o(i.hal_fs_item_del), (164 bytes).
    Removing fs.o(i.hal_fs_item_find_id), (36 bytes).
    Removing fs.o(i.hal_fs_item_read), (172 bytes).
    Removing fs.o(i.hal_fs_item_write), (328 bytes).
    Removing fs.o(.bss), (20 bytes).
    Removing fs.o(.data), (8 bytes).
    Removing seekfree_iic.o(.rev16_text), (4 bytes).
    Removing seekfree_iic.o(.revsh_text), (4 bytes).
    Removing seekfree_iic.o(i.read_ch), (128 bytes).
    Removing seekfree_iic.o(i.sccb_waitack), (82 bytes).
    Removing seekfree_iic.o(i.send_ch), (80 bytes).
    Removing seekfree_iic.o(i.simiic_delay), (20 bytes).
    Removing seekfree_iic.o(i.simiic_init), (20 bytes).
    Removing seekfree_iic.o(i.simiic_read_reg), (62 bytes).
    Removing seekfree_iic.o(i.simiic_read_regs), (86 bytes).
    Removing seekfree_iic.o(i.simiic_sendack), (58 bytes).
    Removing seekfree_iic.o(i.simiic_start), (44 bytes).
    Removing seekfree_iic.o(i.simiic_stop), (48 bytes).
    Removing seekfree_iic.o(i.simiic_write_reg), (38 bytes).
    Removing seekfree_iic.o(i.simiic_write_regs), (50 bytes).
    Removing seekfree_iic.o(.data), (2 bytes).
    Removing seekfree_iic.o(.data), (1 bytes).
    Removing seekfree_iic.o(.data), (1 bytes).
    Removing seekfree_iic.o(.data), (4 bytes).
    Removing seekfree_iic.o(.data), (1 bytes).
    Removing iic_1.o(.rev16_text), (4 bytes).
    Removing iic_1.o(.revsh_text), (4 bytes).
    Removing iic_1.o(i.i2c_init), (68 bytes).
    Removing qma7981.o(.rev16_text), (4 bytes).
    Removing qma7981.o(.revsh_text), (4 bytes).
    Removing qma7981.o(i.qma7981_clear), (12 bytes).
    Removing qma7981.o(i.qma7981_read_step), (24 bytes).
    Removing qma7981.o(i.read_accel_axis), (36 bytes).
    Removing jump_table.o(.rev16_text), (4 bytes).
    Removing jump_table.o(.revsh_text), (4 bytes).
    Removing startup_armcm0.o(HEAP), (3072 bytes).
    Removing system_armcm0.o(.rev16_text), (4 bytes).
    Removing system_armcm0.o(.revsh_text), (4 bytes).
    Removing system_armcm0.o(i.SystemCoreClockUpdate), (16 bytes).
    Removing patch.o(.rev16_text), (4 bytes).
    Removing patch.o(.revsh_text), (4 bytes).
    Removing patch.o(i.HCI_LE_ConnUpdateCmd), (28 bytes).
    Removing patch.o(i.HCI_LE_LtkReqNegReplyCmd), (40 bytes).
    Removing patch.o(i.HCI_LE_LtkReqReplyCmd), (40 bytes).
    Removing patch.o(i.HCI_LE_SetHostChanClassificationCmd), (88 bytes).
    Removing patch.o(i.LL_ConnUpdate1), (240 bytes).
    Removing patch.o(i.LL_CreateConn1), (64 bytes).
    Removing patch.o(i.LL_EncLtkNegReply), (76 bytes).
    Removing patch.o(i.LL_EncLtkReply), (88 bytes).
    Removing patch.o(i.LL_PLUS_GetCurrentPduDle), (56 bytes).
    Removing patch.o(i.LL_PLUS_GetCurrentRSSI), (22 bytes).
    Removing patch.o(i.LL_PLUS_LoadMACFromChipMAddr), (48 bytes).
    Removing patch.o(i.LL_PLUS_LoadMACFromFlash), (48 bytes).
    Removing patch.o(i.LL_SetAdvControl1), (492 bytes).
    Removing patch.o(i.LL_SetAdvParam1), (80 bytes).
    Removing patch.o(i.LL_SetScanControl1), (372 bytes).
    Removing patch.o(i.LL_SetScanParam1), (76 bytes).
    Removing patch.o(i.LL_StartEncrypt1), (232 bytes).
    Removing patch.o(i.LOG_PATCH_DATA_TIME), (2 bytes).
    Removing patch.o(i.chip_id_one_bit_hot_convter), (108 bytes).
    Removing patch.o(i.efuse_write_x), (196 bytes).
    Removing patch.o(i.enter_sleep_off_mode1), (20 bytes).
    Removing patch.o(i.llAdjBoffUpperLimitFailure1), (56 bytes).
    Removing patch.o(i.llCalcMaxScanTime1), (64 bytes).
    Removing patch.o(i.llMasterEvt_TaskEndOk1), (348 bytes).
    Removing patch.o(i.llProcessMasterControlProcedures1), (1204 bytes).
    Removing patch.o(i.llProcessSlaveControlProcedures1), (848 bytes).
    Removing patch.o(i.llSecAdvAllow1), (80 bytes).
    Removing patch.o(i.llSetupNextSlaveEvent1), (44 bytes).
    Removing patch.o(i.llSetupSecAdvEvt1), (152 bytes).
    Removing patch.o(i.llSetupSecScan1), (232 bytes).
    Removing patch.o(i.llSetupStartEncRsp), (64 bytes).
    Removing patch.o(i.ll_hw_read_rfifo1), (116 bytes).
    Removing patch.o(i.ll_patch_master), (132 bytes).
    Removing patch.o(i.ll_patch_multi), (56 bytes).
    Removing patch.o(i.ll_patch_slave), (76 bytes).
    Removing patch.o(i.ll_processBasicIRQ_SRX0), (2304 bytes).
    Removing patch.o(i.ll_processBasicIRQ_ScanTRX0), (476 bytes).
    Removing patch.o(i.ll_processBasicIRQ_secondaryAdvTRX0), (1064 bytes).
    Removing patch.o(i.ll_processBasicIRQ_secondaryInitSRX0), (1156 bytes).
    Removing patch.o(i.ll_processBasicIRQ_secondaryScanSRX0), (424 bytes).
    Removing patch.o(i.ll_scheduler1), (976 bytes).
    Removing patch.o(i.ll_scheduler2), (72 bytes).
    Removing patch.o(i.osal_memory_statics), (76 bytes).
    Removing patch.o(i.pplus_enter_programming_mode), (140 bytes).
    Removing patch.o(i.read_LL_remainder_time1), (44 bytes).
    Removing patch.o(i.rflib_vesion), (18 bytes).
    Removing patch.o(.constdata), (12 bytes).
    Removing patch.o(.constdata), (9 bytes).
    Removing rf_phy_driver.o(.rev16_text), (4 bytes).
    Removing rf_phy_driver.o(.revsh_text), (4 bytes).
    Removing rf_phy_driver.o(i.DTM_UART_IRQHandler), (80 bytes).
    Removing rf_phy_driver.o(i.gen_pn_prbs9), (116 bytes).
    Removing rf_phy_driver.o(i.rf_phy_direct_test), (868 bytes).
    Removing rf_phy_driver.o(i.rf_phy_dtm_ble_pkt_gen), (132 bytes).
    Removing rf_phy_driver.o(i.rf_phy_dtm_cmd_parse), (980 bytes).
    Removing rf_phy_driver.o(i.rf_phy_dtm_evt_send), (236 bytes).
    Removing rf_phy_driver.o(i.rf_phy_dtm_ext_acc_code_set), (12 bytes).
    Removing rf_phy_driver.o(i.rf_phy_dtm_ext_rx_demod_burst), (388 bytes).
    Removing rf_phy_driver.o(i.rf_phy_dtm_ext_tx_mod_burst), (220 bytes).
    Removing rf_phy_driver.o(i.rf_phy_dtm_ext_tx_modulation), (116 bytes).
    Removing rf_phy_driver.o(i.rf_phy_dtm_ext_tx_singleTone), (108 bytes).
    Removing rf_phy_driver.o(i.rf_phy_dtm_init), (56 bytes).
    Removing rf_phy_driver.o(i.rf_phy_dtm_stop), (40 bytes).
    Removing rf_phy_driver.o(i.rf_phy_dtm_trigged), (824 bytes).
    Removing rf_phy_driver.o(i.rf_phy_dtm_zigbee_pkt_gen), (120 bytes).
    Removing rf_phy_driver.o(i.rf_tpCal_cfg), (56 bytes).
    Removing rf_phy_driver.o(i.rf_tpCal_cfg_avg), (192 bytes).
    Removing rf_phy_driver.o(.bss), (32 bytes).
    Removing rf_phy_driver.o(.data), (8 bytes).
    Removing phy_sec_ext.o(.rev16_text), (4 bytes).
    Removing phy_sec_ext.o(.revsh_text), (4 bytes).
    Removing phy_sec_ext.o(i.PHY_Varify_Platform), (40 bytes).
    Removing phy_sec_ext.o(i.verify_mic), (32 bytes).
    Removing phy_sec_ext.o(.constdata), (16 bytes).
    Removing phy_sec_ext.o(.data), (1 bytes).
    Removing phy_sec_ext.o(.data), (1 bytes).
    Removing phy_sec_ext.o(.data), (1 bytes).
    Removing aes.o(.rev16_text), (4 bytes).
    Removing aes.o(.revsh_text), (4 bytes).
    Removing aes.o(i.AddRoundKey), (48 bytes).
    Removing aes.o(i.FFmul), (88 bytes).
    Removing aes.o(i.KeyExpansion), (700 bytes).
    Removing aes.o(i.MixColumns), (436 bytes).
    Removing aes.o(i.ShiftRows), (104 bytes).
    Removing aes.o(i.SubBytes), (68 bytes).
    Removing aes.o(i.affTrans), (252 bytes).
    Removing aes.o(i.flash_check_parition), (36 bytes).
    Removing aes.o(i.flash_load_parition), (36 bytes).
    Removing aes.o(i.getBit), (28 bytes).
    Removing aes.o(i.getByte), (28 bytes).
    Removing aes.o(i.is_crypto_app), (16 bytes).
    Removing aes.o(i.printfStats), (2 bytes).
    Removing aes.o(i.xor128bit), (24 bytes).
    Removing aes.o(i.xtime), (230 bytes).
    Removing aes.o(.constdata), (32 bytes).
    Removing aes.o(.data), (512 bytes).
    Removing fadd.o(.text), (178 bytes).
    Removing fmul.o(.text), (122 bytes).
    Removing fdiv.o(.text), (124 bytes).
    Removing fscalb.o(.text), (24 bytes).
    Removing dscalb.o(.text), (44 bytes).
    Removing fflti.o(.text), (22 bytes).
    Removing ffltui.o(.text), (14 bytes).
    Removing dflti.o(.text), (40 bytes).
    Removing f2d.o(.text), (40 bytes).
    Removing d2f.o(.text), (56 bytes).
    Removing fepilogue.o(.text), (130 bytes).
    Removing adc.o(i.__ARM_common_switch8), (26 bytes).
    Removing patch.o(i.__psr), (6 bytes).

264 unused section(s) (total 32811 bytes) removed from the image.

==============================================================================

Adding Veneers to the image

    Adding TT veneer (12 bytes, Long) for call to 'osal_pwrmgr_powerconserve0' from pwrmgr.o(_section_sram_code_).
    Adding TT veneer (12 bytes, Long) for call to 'drv_disable_irq' from pwrmgr.o(_section_sram_code_).
    Adding TT veneer (12 bytes, Long) for call to 'config_RTC' from pwrmgr.o(_section_sram_code_).
    Adding TT veneer (12 bytes, Long) for call to 'enter_sleep_off_mode' from pwrmgr.o(_section_sram_code_).
    Adding TT veneer (12 bytes, Long) for call to 'drv_enable_irq' from flash.o(_section_sram_code_).
    Adding TT veneer (12 bytes, Long) for call to 'enableSleep' from patch.o(_section_xip_code_).
    Adding TT veneer (12 bytes, Long) for call to 'setSleepMode' from patch.o(_section_xip_code_).
    Adding TT veneer (12 bytes, Long) for call to 'WaitRTCCount' from patch.o(_section_xip_code_).
    Adding TT veneer (12 bytes, Long) for call to 'LL_ENC_AES128_Encrypt' from patch.o(_section_xip_code_).
    Adding TT veneer (12 bytes, Long) for call to 'osal_memcpy' from patch.o(_section_xip_code_).
    Adding TT veneer (12 bytes, Long) for call to 'read_current_fine_time' from patch.o(_section_xip_code_).
    Adding TT veneer (12 bytes, Long) for call to 'LL_ENC_AES128_Encrypt0' from patch.o(i.LL_ENC_AES128_Encrypt1).
    Adding TT veneer (12 bytes, Long) for call to 'LL_ENC_LoadKey' from patch.o(i.LL_ENC_Decrypt1).
    Adding TT veneer (12 bytes, Long) for call to 'LL_ENC_GenerateNonce' from patch.o(i.LL_ENC_Decrypt1).
    Adding TT veneer (12 bytes, Long) for call to '__aeabi_uread4' from patch.o(i.LL_ENC_Decrypt1).
    Adding TT veneer (12 bytes, Long) for call to 'll_debug_output' from patch.o(i.LL_IRQHandler1).
    Adding TT veneer (12 bytes, Long) for call to 'll_hw_get_irq_status' from patch.o(i.LL_IRQHandler1).
    Adding TT veneer (12 bytes, Long) for call to 'll_hw_get_tr_mode' from patch.o(i.LL_IRQHandler1).
    Adding TT veneer (12 bytes, Long) for call to 'll_hw_clr_irq' from patch.o(i.LL_IRQHandler1).
    Adding TT veneer (12 bytes, Long) for call to 'll_processExtAdvIRQ' from patch.o(i.LL_IRQHandler1).
    Adding TT veneer (12 bytes, Long) for call to 'll_processExtScanIRQ' from patch.o(i.LL_IRQHandler1).
    Adding TT veneer (12 bytes, Long) for call to 'll_processExtInitIRQ' from patch.o(i.LL_IRQHandler1).
    Adding TT veneer (12 bytes, Long) for call to 'll_processPrdAdvIRQ' from patch.o(i.LL_IRQHandler1).
    Adding TT veneer (12 bytes, Long) for call to 'll_processPrdScanIRQ' from patch.o(i.LL_IRQHandler1).
    Adding TT veneer (12 bytes, Long) for call to 'll_processBasicIRQ' from patch.o(i.LL_IRQHandler1).
    Adding TT veneer (12 bytes, Long) for call to 'll_schedule_next_event' from patch.o(i.LL_IRQHandler1).
    Adding TT veneer (12 bytes, Long) for call to 'llSecAdvAllow' from patch.o(i.LL_IRQHandler1).
    Adding TT veneer (12 bytes, Long) for call to 'llSetupSecAdvEvt' from patch.o(i.LL_IRQHandler1).
    Adding TT veneer (12 bytes, Long) for call to 'll_hw_set_rx_timeout' from patch.o(i.LL_IRQHandler1).
    Adding TT veneer (12 bytes, Long) for call to 'llSetupSecScan' from patch.o(i.LL_IRQHandler1).
    Adding TT veneer (12 bytes, Long) for call to 'llSetupSecInit' from patch.o(i.LL_IRQHandler1).
    Adding TT veneer (12 bytes, Long) for call to 'LL_SetDataLengh0' from patch.o(i.LL_SetDataLengh1).
    Adding TT veneer (12 bytes, Long) for call to 'LL_set_default_conn_params0' from patch.o(i.LL_set_default_conn_params1).
    Adding TT veneer (12 bytes, Long) for call to 'll_hw_read_rfifo' from phy_rf.o(i.PLUSPHY_IRQHandler).
    Adding TT veneer (12 bytes, Long) for call to 'll_hw_read_rfifo_pplus' from phy_rf.o(i.PLUSPHY_IRQHandler).
    Adding TT veneer (12 bytes, Long) for call to 'osal_set_event' from phy_rf.o(i.PLUSPHY_IRQHandler).
    Adding TT veneer (12 bytes, Long) for call to 'osal_start_timerEx' from phy_rf.o(i.PhyRf_Init).
    Adding TT veneer (12 bytes, Long) for call to '__aeabi_uidivmod' from clock.o(i.WaitMs).
    Adding TT veneer (12 bytes, Long) for call to 'efuse_read' from phy_sec_ext.o(i._efuse_chip_version_check).
    Adding TT veneer (12 bytes, Long) for call to 'log_printf' from jump_table.o(i._hard_fault).
    Adding TT veneer (12 bytes, Long) for call to 'spif_cmd' from flash.o(i._spif_wait_nobusy_x).
    Adding TT veneer (12 bytes, Long) for call to 'spif_rddata' from flash.o(i._spif_wait_nobusy_x).
    Adding TT veneer (12 bytes, Long) for call to '__ARM_common_switch8' from adc.o(i.adc_init_r).
    Adding TT veneer (12 bytes, Long) for call to 'osal_init_system' from phy_rf.o(i.app_main).
    Adding TT veneer (12 bytes, Long) for call to 'osal_pwrmgr_device' from phy_rf.o(i.app_main).
    Adding TT veneer (12 bytes, Long) for call to 'osal_start_system' from phy_rf.o(i.app_main).
    Adding TT veneer (12 bytes, Long) for call to 'rtc_get_counter' from patch.o(i.check_16MXtal_by_rcTracking).
    Adding TT veneer (12 bytes, Long) for call to 'set_sleep_flag' from patch.o(i.check_16MXtal_by_rcTracking).
    Adding TT veneer (12 bytes, Long) for call to '__aeabi_memclr4' from adc.o(i.clear_adcc_cfg).
    Adding TT veneer (12 bytes, Long) for call to 'read_LL_remainder_time' from patch.o(i.config_RTC1).
    Adding TT veneer (12 bytes, Long) for call to 'enterSleepProcess0' from patch.o(i.enterSleepProcess1).
    Adding TT veneer (12 bytes, Long) for call to 'osal_memcmp' from phy_sec_ext.o(i.finidv).
    Adding TT veneer (12 bytes, Long) for call to '__aeabi_idivmod' from adc_demo.o(i.get_adc).
    Adding TT veneer (12 bytes, Long) for call to '__aeabi_memcpy4' from main.o(i.hal_low_power_io_init).
    Adding TT veneer (12 bytes, Long) for call to 'disableSleep' from pwrmgr.o(i.hal_pwrmgr_init).
    Adding TT veneer (12 bytes, Long) for call to 'osal_mem_set_heap' from main.o(i.hal_rfphy_init).
    Adding TT veneer (12 bytes, Long) for call to 'spif_config' from flash.o(i.hw_spif_cache_config).
    Adding TT veneer (12 bytes, Long) for call to 'llConnTerminate0' from patch.o(i.llConnTerminate1).
    Adding TT veneer (12 bytes, Long) for call to 'llProcessChanMap' from patch.o(i.llConnTerminate1).
    Adding TT veneer (12 bytes, Long) for call to 'llProcessTxData0' from patch.o(i.llProcessTxData1).
    Adding TT veneer (12 bytes, Long) for call to 'll_hw_get_loop_cycle' from patch.o(i.ll_adptive_adj_next_time1).
    Adding TT veneer (12 bytes, Long) for call to 'll_hw_get_anchor' from patch.o(i.ll_adptive_adj_next_time1).
    Adding TT veneer (12 bytes, Long) for call to 'll_hw_write_tfifo' from patch.o(i.ll_generateTxBuffer1).
    Adding TT veneer (12 bytes, Long) for call to 'll_hw_get_tfifo_wrptr' from patch.o(i.ll_generateTxBuffer1).
    Adding TT veneer (12 bytes, Long) for call to 'getTxBufferSize' from patch.o(i.ll_generateTxBuffer1).
    Adding TT veneer (12 bytes, Long) for call to 'get_tx_read_ptr' from patch.o(i.ll_generateTxBuffer1).
    Adding TT veneer (12 bytes, Long) for call to 'update_tx_read_ptr' from patch.o(i.ll_generateTxBuffer1).
    Adding TT veneer (12 bytes, Long) for call to 'llEnqueueCtrlPkt' from patch.o(i.ll_generateTxBuffer1).
    Adding TT veneer (12 bytes, Long) for call to 'set_max_length' from patch.o(i.ll_hw_go1).
    Adding TT veneer (12 bytes, Long) for call to 'drv_irq_init' from main.o(i.main).
    Adding TT veneer (12 bytes, Long) for call to 'clk_init' from main.o(i.main).
    Adding TT veneer (12 bytes, Long) for call to 'osal_mem_alloc' from osal_phyrf.o(i.osalInitTasks).
    Adding TT veneer (12 bytes, Long) for call to 'osal_memset' from osal_phyrf.o(i.osalInitTasks).
    Adding TT veneer (12 bytes, Long) for call to 'll_hw_set_crc_fmt' from phy_rf.o(i.phy_hw_pktFmt_Config).
    Adding TT veneer (12 bytes, Long) for call to 'll_hw_ign_rfifo' from phy_rf.o(i.phy_hw_pktFmt_Config).
    Adding TT veneer (12 bytes, Long) for call to 'll_hw_set_pplus_pktfmt' from phy_rf.o(i.phy_hw_pktFmt_Config).
    Adding TT veneer (12 bytes, Long) for call to 'll_hw_set_stx' from phy_rf.o(i.phy_hw_set_stx).
    Adding TT veneer (12 bytes, Long) for call to 'll_hw_set_trx_settle' from phy_rf.o(i.phy_hw_set_stx).
    Adding TT veneer (12 bytes, Long) for call to 'll_hw_set_trx' from phy_rf.o(i.phy_hw_set_trx).
    Adding TT veneer (12 bytes, Long) for call to 'll_hw_set_tx_rx_release' from phy_rf.o(i.phy_hw_timing_setting).
    Adding TT veneer (12 bytes, Long) for call to 'll_hw_set_rx_tx_interval' from phy_rf.o(i.phy_hw_timing_setting).
    Adding TT veneer (12 bytes, Long) for call to 'll_hw_set_tx_rx_interval' from phy_rf.o(i.phy_hw_timing_setting).
    Adding TT veneer (12 bytes, Long) for call to 'll_hw_rst_tfifo' from phy_rf.o(i.phy_rf_tx).
    Adding TT veneer (12 bytes, Long) for call to 'll_hw_rst_rfifo' from phy_rf.o(i.phy_rf_tx).
    Adding TT veneer (12 bytes, Long) for call to 'll_hw_tx2rx_timing_config' from rf_phy_driver.o(i.rf_phy_ini).
    Adding TT veneer (12 bytes, Long) for call to '__aeabi_memcpy' from uart.o(i.txmit_buf_use_tx_buf).
    Adding TT veneer (12 bytes, Long) for call to 'clk_get_pclk' from uart.o(i.uart_hw_init).
    Adding TT veneer (12 bytes, Long) for call to 'osalTimeUpdate' from patch.o(i.wakeupProcess1).
    Adding TT veneer (12 bytes, Long) for call to 'set_timer' from patch.o(i.wakeupProcess1).
    Adding TT veneer (12 bytes, Long) for call to 'app_wakeup_process' from patch.o(i.wakeupProcess1).
    Adding TT veneer (12 bytes, Long) for call to 'll_hw_set_empty_head' from patch.o(i.wakeup_init1).
    Adding TT veneer (12 bytes, Long) for call to 'll_hw_set_rx_timeout_1st' from patch.o(i.wakeup_init1).
    Adding TT veneer (12 bytes, Long) for call to 'll_hw_set_loop_timeout' from patch.o(i.wakeup_init1).
    Adding TT veneer (12 bytes, Long) for call to 'll_hw_set_timing' from patch.o(i.wakeup_init1).

94 Veneer(s) (total 1128 bytes) added to the image.

==============================================================================

Image Symbol Table

    Local Symbols

    Symbol Name                              Value     Ov Type        Size  Object(Section)

    ../clib/../cmprslib/zerorunl2.c          0x00000000   Number         0  __dczerorl2.o ABSOLUTE
    ../clib/microlib/init/entry.s            0x00000000   Number         0  entry7a.o ABSOLUTE
    ../clib/microlib/init/entry.s            0x00000000   Number         0  entry10b.o ABSOLUTE
    ../clib/microlib/init/entry.s            0x00000000   Number         0  entry10a.o ABSOLUTE
    ../clib/microlib/init/entry.s            0x00000000   Number         0  entry9b.o ABSOLUTE
    ../clib/microlib/init/entry.s            0x00000000   Number         0  entry.o ABSOLUTE
    ../clib/microlib/init/entry.s            0x00000000   Number         0  entry9a.o ABSOLUTE
    ../clib/microlib/init/entry.s            0x00000000   Number         0  entry8b.o ABSOLUTE
    ../clib/microlib/init/entry.s            0x00000000   Number         0  entry8a.o ABSOLUTE
    ../clib/microlib/init/entry.s            0x00000000   Number         0  entry7b.o ABSOLUTE
    ../clib/microlib/init/entry.s            0x00000000   Number         0  entry11a.o ABSOLUTE
    ../clib/microlib/init/entry.s            0x00000000   Number         0  entry5.o ABSOLUTE
    ../clib/microlib/init/entry.s            0x00000000   Number         0  entry11b.o ABSOLUTE
    ../clib/microlib/init/entry.s            0x00000000   Number         0  entry12a.o ABSOLUTE
    ../clib/microlib/init/entry.s            0x00000000   Number         0  entry12b.o ABSOLUTE
    ../clib/microlib/init/entry.s            0x00000000   Number         0  entry2.o ABSOLUTE
    ../clib/microlib/longlong.c              0x00000000   Number         0  llsshr.o ABSOLUTE
    ../clib/microlib/longlong.c              0x00000000   Number         0  llshl.o ABSOLUTE
    ../clib/microlib/longlong.c              0x00000000   Number         0  llushr.o ABSOLUTE
    ../clib/microlib/stubs.s                 0x00000000   Number         0  iusefp.o ABSOLUTE
    ../fplib/microlib/d2f.c                  0x00000000   Number         0  d2f.o ABSOLUTE
    ../fplib/microlib/f2d.c                  0x00000000   Number         0  f2d.o ABSOLUTE
    ../fplib/microlib/fpadd.c                0x00000000   Number         0  dadd.o ABSOLUTE
    ../fplib/microlib/fpadd.c                0x00000000   Number         0  fadd.o ABSOLUTE
    ../fplib/microlib/fpdiv.c                0x00000000   Number         0  ddiv.o ABSOLUTE
    ../fplib/microlib/fpdiv.c                0x00000000   Number         0  fdiv.o ABSOLUTE
    ../fplib/microlib/fpepilogue.c           0x00000000   Number         0  depilogue.o ABSOLUTE
    ../fplib/microlib/fpepilogue.c           0x00000000   Number         0  fepilogue.o ABSOLUTE
    ../fplib/microlib/fpfix.c                0x00000000   Number         0  dfixui.o ABSOLUTE
    ../fplib/microlib/fpflt.c                0x00000000   Number         0  fflti.o ABSOLUTE
    ../fplib/microlib/fpflt.c                0x00000000   Number         0  dflti.o ABSOLUTE
    ../fplib/microlib/fpflt.c                0x00000000   Number         0  dfltui.o ABSOLUTE
    ../fplib/microlib/fpflt.c                0x00000000   Number         0  ffltui.o ABSOLUTE
    ../fplib/microlib/fpmul.c                0x00000000   Number         0  dmul.o ABSOLUTE
    ../fplib/microlib/fpmul.c                0x00000000   Number         0  fmul.o ABSOLUTE
    ../fplib/microlib/fpscalb.c              0x00000000   Number         0  dscalb.o ABSOLUTE
    ../fplib/microlib/fpscalb.c              0x00000000   Number         0  fscalb.o ABSOLUTE
    ..\..\..\components\driver\clock\clock.c 0x00000000   Number         0  clock.o ABSOLUTE
    ..\..\..\components\driver\flash\flash.c 0x00000000   Number         0  flash.o ABSOLUTE
    ..\..\..\components\driver\gpio\gpio.c   0x00000000   Number         0  gpio.o ABSOLUTE
    ..\..\..\components\driver\log\my_printf.c 0x00000000   Number         0  my_printf.o ABSOLUTE
    ..\..\..\components\driver\pwrmgr\pwrmgr.c 0x00000000   Number         0  pwrmgr.o ABSOLUTE
    ..\..\..\components\driver\timer\timer.c 0x00000000   Number         0  timer.o ABSOLUTE
    ..\..\..\components\driver\uart\uart.c   0x00000000   Number         0  uart.o ABSOLUTE
    ..\..\..\components\libraries\fs\fs.c    0x00000000   Number         0  fs.o ABSOLUTE
    ..\..\..\misc\jump_table.c               0x00000000   Number         0  jump_table.o ABSOLUTE
    ..\..\components\ble_src\controller\rf_phy_driver.c 0x00000000   Number         0  rf_phy_driver.o ABSOLUTE
    ..\\..\\..\\components\\driver\\clock\\clock.c 0x00000000   Number         0  clock.o ABSOLUTE
    ..\\..\\..\\components\\driver\\flash\\flash.c 0x00000000   Number         0  flash.o ABSOLUTE
    ..\\..\\..\\components\\driver\\gpio\\gpio.c 0x00000000   Number         0  gpio.o ABSOLUTE
    ..\\..\\..\\components\\driver\\log\\my_printf.c 0x00000000   Number         0  my_printf.o ABSOLUTE
    ..\\..\\..\\components\\driver\\pwrmgr\\pwrmgr.c 0x00000000   Number         0  pwrmgr.o ABSOLUTE
    ..\\..\\..\\components\\driver\\timer\\timer.c 0x00000000   Number         0  timer.o ABSOLUTE
    ..\\..\\..\\components\\driver\\uart\\uart.c 0x00000000   Number         0  uart.o ABSOLUTE
    ..\\..\\..\\components\\libraries\\fs\\fs.c 0x00000000   Number         0  fs.o ABSOLUTE
    ..\\..\\..\\misc\\jump_table.c           0x00000000   Number         0  jump_table.o ABSOLUTE
    ..\\..\\components\\ble_src\\controller\\rf_phy_driver.c 0x00000000   Number         0  rf_phy_driver.o ABSOLUTE
    RTE\Device\ARMCM0\startup_ARMCM0.s       0x00000000   Number         0  startup_armcm0.o ABSOLUTE
    RTE\Device\ARMCM0\system_ARMCM0.c        0x00000000   Number         0  system_armcm0.o ABSOLUTE
    RTE\\Device\\ARMCM0\\system_ARMCM0.c     0x00000000   Number         0  system_armcm0.o ABSOLUTE
    dc.s                                     0x00000000   Number         0  dc.o ABSOLUTE
    handlers.s                               0x00000000   Number         0  handlers.o ABSOLUTE
    init.s                                   0x00000000   Number         0  init.o ABSOLUTE
    main.c                                   0x00000000   Number         0  main.o ABSOLUTE
    main.c                                   0x00000000   Number         0  main.o ABSOLUTE
    source\OSAL_PhyRf.c                      0x00000000   Number         0  osal_phyrf.o ABSOLUTE
    source\QMA7981.c                         0x00000000   Number         0  qma7981.o ABSOLUTE
    source\SEEKFREE_IIC.c                    0x00000000   Number         0  seekfree_iic.o ABSOLUTE
    source\\OSAL_PhyRf.c                     0x00000000   Number         0  osal_phyrf.o ABSOLUTE
    source\\QMA7981.c                        0x00000000   Number         0  qma7981.o ABSOLUTE
    source\\SEEKFREE_IIC.c                   0x00000000   Number         0  seekfree_iic.o ABSOLUTE
    source\\adc.c                            0x00000000   Number         0  adc.o ABSOLUTE
    source\\adc_demo.c                       0x00000000   Number         0  adc_demo.o ABSOLUTE
    source\\aes.c                            0x00000000   Number         0  aes.o ABSOLUTE
    source\\iic_1.c                          0x00000000   Number         0  iic_1.o ABSOLUTE
    source\\my.c                             0x00000000   Number         0  my.o ABSOLUTE
    source\\patch.c                          0x00000000   Number         0  patch.o ABSOLUTE
    source\\phy_Rf.c                         0x00000000   Number         0  phy_rf.o ABSOLUTE
    source\\phy_sec_ext.c                    0x00000000   Number         0  phy_sec_ext.o ABSOLUTE
    source\\smart_rf_app.c                   0x00000000   Number         0  smart_rf_app.o ABSOLUTE
    source\adc.c                             0x00000000   Number         0  adc.o ABSOLUTE
    source\adc_demo.c                        0x00000000   Number         0  adc_demo.o ABSOLUTE
    source\aes.c                             0x00000000   Number         0  aes.o ABSOLUTE
    source\iic_1.c                           0x00000000   Number         0  iic_1.o ABSOLUTE
    source\my.c                              0x00000000   Number         0  my.o ABSOLUTE
    source\patch.c                           0x00000000   Number         0  patch.o ABSOLUTE
    source\phy_Rf.c                          0x00000000   Number         0  phy_rf.o ABSOLUTE
    source\phy_sec_ext.c                     0x00000000   Number         0  phy_sec_ext.o ABSOLUTE
    source\smart_rf_app.c                    0x00000000   Number         0  smart_rf_app.o ABSOLUTE
    jump_table_mem_area                      0x1fff0000   Section     1024  jump_table.o(jump_table_mem_area)
    global_config_area                       0x1fff0400   Section     1024  jump_table.o(global_config_area)
    RESET                                    0x1fff1838   Section        8  startup_armcm0.o(RESET)
    .ARM.Collect$$$$00000000                 0x1fff1840   Section        0  entry.o(.ARM.Collect$$$$00000000)
    .ARM.Collect$$$$00000001                 0x1fff1840   Section        4  entry2.o(.ARM.Collect$$$$00000001)
    .ARM.Collect$$$$00000004                 0x1fff1844   Section        4  entry5.o(.ARM.Collect$$$$00000004)
    .ARM.Collect$$$$00000008                 0x1fff1848   Section        0  entry7b.o(.ARM.Collect$$$$00000008)
    .ARM.Collect$$$$0000000A                 0x1fff1848   Section        0  entry8b.o(.ARM.Collect$$$$0000000A)
    .ARM.Collect$$$$0000000B                 0x1fff1848   Section        8  entry9a.o(.ARM.Collect$$$$0000000B)
    .ARM.Collect$$$$0000000E                 0x1fff1850   Section        4  entry12b.o(.ARM.Collect$$$$0000000E)
    .ARM.Collect$$$$0000000F                 0x1fff1854   Section        0  entry10a.o(.ARM.Collect$$$$0000000F)
    .ARM.Collect$$$$00000011                 0x1fff1854   Section        0  entry11a.o(.ARM.Collect$$$$00000011)
    .ARM.Collect$$$$00002712                 0x1fff1854   Section        4  entry2.o(.ARM.Collect$$$$00002712)
    __lit__00000000                          0x1fff1854   Data           4  entry2.o(.ARM.Collect$$$$00002712)
    .emb_text                                0x1fff1858   Section       48  jump_table.o(.emb_text)
    .text                                    0x1fff1888   Section       20  startup_armcm0.o(.text)
    .text                                    0x1fff189c   Section        0  dadd.o(.text)
    .text                                    0x1fff1a04   Section        0  dmul.o(.text)
    .text                                    0x1fff1ad4   Section        0  ddiv.o(.text)
    .text                                    0x1fff1bc4   Section        0  dfltui.o(.text)
    .text                                    0x1fff1be0   Section        0  dfixui.o(.text)
    .text                                    0x1fff1c1c   Section        0  llshl.o(.text)
    .text                                    0x1fff1c3c   Section        0  llushr.o(.text)
    .text                                    0x1fff1c5e   Section        0  llsshr.o(.text)
    .text                                    0x1fff1c84   Section        0  depilogue.o(.text)
    .text                                    0x1fff1c84   Section        0  iusefp.o(.text)
    .text                                    0x1fff1d44   Section       36  init.o(.text)
    .text                                    0x1fff1d68   Section        0  __dczerorl2.o(.text)
    _section_sram_code_                      0x1fff2228   Section        0  uart.o(_section_sram_code_)
    irq_rx_handler                           0x1fff2229   Thumb Code    84  uart.o(_section_sram_code_)
    irq_tx_empty_handler                     0x1fff227d   Thumb Code   138  uart.o(_section_sram_code_)
    __tagsym$$used                           0x1fff2307   Number         0  uart.o(_section_sram_code_)
    __tagsym$$used                           0x1fff233b   Number         0  uart.o(_section_sram_code_)
    _section_sram_code_                      0x1fff2380   Section        0  pwrmgr.o(_section_sram_code_)
    _section_sram_code_                      0x1fff23c0   Section        0  flash.o(_section_sram_code_)
    spif_lock                                0x1fff23c1   Thumb Code    30  flash.o(_section_sram_code_)
    spif_unlock                              0x1fff23df   Thumb Code    18  flash.o(_section_sram_code_)
    _section_xip_code_                       0x1fff23f8   Section        0  patch.o(_section_xip_code_)
    TRNG_Output                              0x1fff2645   Thumb Code    72  patch.o(_section_xip_code_)
    i.IIC_Ack                                0x1fff27f0   Section        0  iic_1.o(i.IIC_Ack)
    i.IIC_NAck                               0x1fff2824   Section        0  iic_1.o(i.IIC_NAck)
    i.IIC_Read_Byte                          0x1fff2858   Section        0  iic_1.o(i.IIC_Read_Byte)
    i.IIC_Send_Byte                          0x1fff289c   Section        0  iic_1.o(i.IIC_Send_Byte)
    i.IIC_Start                              0x1fff28ee   Section        0  iic_1.o(i.IIC_Start)
    i.IIC_Stop                               0x1fff2922   Section        0  iic_1.o(i.IIC_Stop)
    i.IIC_Wait_Ack                           0x1fff2950   Section        0  iic_1.o(i.IIC_Wait_Ack)
    i.InsertSort                             0x1fff29a4   Section        0  adc_demo.o(i.InsertSort)
    i.LL_ENC_AES128_Encrypt1                 0x1fff29da   Section        0  patch.o(i.LL_ENC_AES128_Encrypt1)
    i.LL_ENC_Decrypt1                        0x1fff29f4   Section        0  patch.o(i.LL_ENC_Decrypt1)
    i.LL_ENC_Encrypt1                        0x1fff2b6c   Section        0  patch.o(i.LL_ENC_Encrypt1)
    i.LL_IRQHandler1                         0x1fff2ccc   Section        0  patch.o(i.LL_IRQHandler1)
    i.LL_SetDataLengh1                       0x1fff2e4c   Section        0  patch.o(i.LL_SetDataLengh1)
    i.LL_set_default_conn_params1            0x1fff2e7c   Section        0  patch.o(i.LL_set_default_conn_params1)
    i.NVIC_EnableIRQ                         0x1fff2e90   Section        0  patch.o(i.NVIC_EnableIRQ)
    NVIC_EnableIRQ                           0x1fff2e91   Thumb Code    14  patch.o(i.NVIC_EnableIRQ)
    i.PLUSPHY_IRQHandler                     0x1fff2ea4   Section        0  phy_rf.o(i.PLUSPHY_IRQHandler)
    i.PhyRf_Init                             0x1fff2fb0   Section        0  phy_rf.o(i.PhyRf_Init)
    i.PhyRf_ProcessEvent                     0x1fff30cc   Section        0  phy_rf.o(i.PhyRf_ProcessEvent)
    i.SDA_IN                                 0x1fff315c   Section        0  iic_1.o(i.SDA_IN)
    i.SDA_OUT                                0x1fff3170   Section        0  iic_1.o(i.SDA_OUT)
    i.SystemInit                             0x1fff317c   Section        0  system_armcm0.o(i.SystemInit)
    i.WaitMs                                 0x1fff318c   Section        0  clock.o(i.WaitMs)
    i.WaitUs                                 0x1fff31a0   Section        0  clock.o(i.WaitUs)
    i.__ARM_clz                              0x1fff31cc   Section        0  depilogue.o(i.__ARM_clz)
    i.__NVIC_EnableIRQ                       0x1fff31fc   Section        0  gpio.o(i.__NVIC_EnableIRQ)
    __NVIC_EnableIRQ                         0x1fff31fd   Thumb Code    18  gpio.o(i.__NVIC_EnableIRQ)
    i.__NVIC_SetPriority                     0x1fff3214   Section        0  main.o(i.__NVIC_SetPriority)
    __NVIC_SetPriority                       0x1fff3215   Thumb Code    60  main.o(i.__NVIC_SetPriority)
    i.__NVIC_SetPriority                     0x1fff3258   Section        0  gpio.o(i.__NVIC_SetPriority)
    __NVIC_SetPriority                       0x1fff3259   Thumb Code    60  gpio.o(i.__NVIC_SetPriority)
    i.__NVIC_SetPriority                     0x1fff329c   Section        0  pwrmgr.o(i.__NVIC_SetPriority)
    __NVIC_SetPriority                       0x1fff329d   Thumb Code    60  pwrmgr.o(i.__NVIC_SetPriority)
    i.__scatterload_copy                     0x1fff32e0   Section       14  handlers.o(i.__scatterload_copy)
    i.__scatterload_null                     0x1fff32ee   Section        2  handlers.o(i.__scatterload_null)
    i.__scatterload_zeroinit                 0x1fff32f0   Section       14  handlers.o(i.__scatterload_zeroinit)
    i.__wdt_init                             0x1fff3300   Section        0  patch.o(i.__wdt_init)
    i._efuse_chip_version_check              0x1fff3310   Section        0  phy_sec_ext.o(i._efuse_chip_version_check)
    i._hard_fault                            0x1fff3330   Section        0  jump_table.o(i._hard_fault)
    i._rom_sec_boot_init                     0x1fff3518   Section        0  phy_sec_ext.o(i._rom_sec_boot_init)
    i._spif_wait_nobusy_x                    0x1fff3534   Section        0  flash.o(i._spif_wait_nobusy_x)
    _spif_wait_nobusy_x                      0x1fff3535   Thumb Code    98  flash.o(i._spif_wait_nobusy_x)
    i._uart_putc                             0x1fff359c   Section        0  my_printf.o(i._uart_putc)
    _uart_putc                               0x1fff359d   Thumb Code    14  my_printf.o(i._uart_putc)
    i.adcMeasureCh                           0x1fff35ac   Section        0  adc_demo.o(i.adcMeasureCh)
    i.adc_init_r                             0x1fff363c   Section        0  adc.o(i.adc_init_r)
    i.adc_stop_r                             0x1fff37fc   Section        0  adc.o(i.adc_stop_r)
    i.adc_wakeup_hdl                         0x1fff3808   Section        0  adc.o(i.adc_wakeup_hdl)
    adc_wakeup_hdl                           0x1fff3809   Thumb Code    20  adc.o(i.adc_wakeup_hdl)
    i.app_main                               0x1fff3820   Section        0  phy_rf.o(i.app_main)
    i.change_adv_buffer                      0x1fff3834   Section        0  my.o(i.change_adv_buffer)
    i.check_16MXtal_by_rcTracking            0x1fff3870   Section        0  patch.o(i.check_16MXtal_by_rcTracking)
    check_16MXtal_by_rcTracking              0x1fff3871   Thumb Code   316  patch.o(i.check_16MXtal_by_rcTracking)
    i.check_96MXtal_by_rcTracking            0x1fff39c4   Section        0  patch.o(i.check_96MXtal_by_rcTracking)
    check_96MXtal_by_rcTracking              0x1fff39c5   Thumb Code   246  patch.o(i.check_96MXtal_by_rcTracking)
    i.clear_adcc_cfg                         0x1fff3ad4   Section        0  adc.o(i.clear_adcc_cfg)
    clear_adcc_cfg                           0x1fff3ad5   Thumb Code    12  adc.o(i.clear_adcc_cfg)
    i.config_RTC1                            0x1fff3ae4   Section        0  patch.o(i.config_RTC1)
    i.dbg_printf                             0x1fff3b74   Section        0  my_printf.o(i.dbg_printf)
    i.dbg_printf_init                        0x1fff3b90   Section        0  my_printf.o(i.dbg_printf_init)
    i.delay_ms                               0x1fff3ba4   Section        0  iic_1.o(i.delay_ms)
    i.delay_us                               0x1fff3bac   Section        0  iic_1.o(i.delay_us)
    i.efuse_init                             0x1fff3bb8   Section        0  phy_sec_ext.o(i.efuse_init)
    i.enterSleepProcess1                     0x1fff3bd0   Section        0  patch.o(i.enterSleepProcess1)
    i.finidv                                 0x1fff3bfc   Section        0  phy_sec_ext.o(i.finidv)
    i.get_adc                                0x1fff3c88   Section        0  adc_demo.o(i.get_adc)
    i.hal_ADC_IRQHandler                     0x1fff3d40   Section        0  adc.o(i.hal_ADC_IRQHandler)
    __tagsym$$used                           0x1fff3d41   Number         0  adc.o(i.hal_ADC_IRQHandler)
    i.hal_GPIO_IRQHandler                    0x1fff3e08   Section        0  gpio.o(i.hal_GPIO_IRQHandler)
    __tagsym$$used                           0x1fff3e09   Number         0  gpio.o(i.hal_GPIO_IRQHandler)
    i.hal_TIMER5_IRQHandler                  0x1fff3e20   Section        0  timer.o(i.hal_TIMER5_IRQHandler)
    __tagsym$$used                           0x1fff3e21   Number         0  timer.o(i.hal_TIMER5_IRQHandler)
    i.hal_TIMER6_IRQHandler                  0x1fff3e44   Section        0  timer.o(i.hal_TIMER6_IRQHandler)
    __tagsym$$used                           0x1fff3e45   Number         0  timer.o(i.hal_TIMER6_IRQHandler)
    i.hal_adc_init                           0x1fff3e68   Section        0  adc.o(i.hal_adc_init)
    i.hal_adc_stop                           0x1fff3e88   Section        0  adc.o(i.hal_adc_stop)
    i.hal_cache_tag_flush                    0x1fff3f3c   Section        0  flash.o(i.hal_cache_tag_flush)
    hal_cache_tag_flush                      0x1fff3f3d   Thumb Code    66  flash.o(i.hal_cache_tag_flush)
    i.hal_clk_gate_disable                   0x1fff3f84   Section        0  clock.o(i.hal_clk_gate_disable)
    i.hal_clk_gate_enable                    0x1fff3fb8   Section        0  clock.o(i.hal_clk_gate_enable)
    i.hal_clk_reset                          0x1fff3fec   Section        0  clock.o(i.hal_clk_reset)
    i.hal_flash_read                         0x1fff4068   Section        0  flash.o(i.hal_flash_read)
    i.hal_get_flash_info                     0x1fff4118   Section        0  flash.o(i.hal_get_flash_info)
    i.hal_gpio_cfg_analog_io                 0x1fff41e4   Section        0  gpio.o(i.hal_gpio_cfg_analog_io)
    i.hal_gpio_fmux                          0x1fff4214   Section        0  gpio.o(i.hal_gpio_fmux)
    i.hal_gpio_fmux_set                      0x1fff4230   Section        0  gpio.o(i.hal_gpio_fmux_set)
    i.hal_gpio_init                          0x1fff4268   Section        0  gpio.o(i.hal_gpio_init)
    i.hal_gpio_interrupt_enable              0x1fff42c4   Section        0  gpio.o(i.hal_gpio_interrupt_enable)
    hal_gpio_interrupt_enable                0x1fff42c5   Thumb Code    58  gpio.o(i.hal_gpio_interrupt_enable)
    i.hal_gpio_pin2pin3_control              0x1fff4304   Section        0  gpio.o(i.hal_gpio_pin2pin3_control)
    i.hal_gpio_pin_init                      0x1fff4320   Section        0  gpio.o(i.hal_gpio_pin_init)
    i.hal_gpio_pull_set                      0x1fff4380   Section        0  gpio.o(i.hal_gpio_pull_set)
    i.hal_gpio_read                          0x1fff43c4   Section        0  gpio.o(i.hal_gpio_read)
    i.hal_gpio_retention_enable              0x1fff43e8   Section        0  gpio.o(i.hal_gpio_retention_enable)
    hal_gpio_retention_enable                0x1fff43e9   Thumb Code    84  gpio.o(i.hal_gpio_retention_enable)
    i.hal_gpio_sleep_handler                 0x1fff4444   Section        0  gpio.o(i.hal_gpio_sleep_handler)
    hal_gpio_sleep_handler                   0x1fff4445   Thumb Code    66  gpio.o(i.hal_gpio_sleep_handler)
    i.hal_gpio_wakeup_control                0x1fff448c   Section        0  gpio.o(i.hal_gpio_wakeup_control)
    hal_gpio_wakeup_control                  0x1fff448d   Thumb Code    58  gpio.o(i.hal_gpio_wakeup_control)
    i.hal_gpio_wakeup_handler                0x1fff44d0   Section        0  gpio.o(i.hal_gpio_wakeup_handler)
    hal_gpio_wakeup_handler                  0x1fff44d1   Thumb Code   132  gpio.o(i.hal_gpio_wakeup_handler)
    i.hal_gpio_wakeup_set                    0x1fff4558   Section        0  gpio.o(i.hal_gpio_wakeup_set)
    i.hal_gpio_write                         0x1fff45d0   Section        0  gpio.o(i.hal_gpio_write)
    i.hal_gpioin_enable                      0x1fff45f4   Section        0  gpio.o(i.hal_gpioin_enable)
    i.hal_gpioin_event                       0x1fff4658   Section        0  gpio.o(i.hal_gpioin_event)
    hal_gpioin_event                         0x1fff4659   Thumb Code   100  gpio.o(i.hal_gpioin_event)
    i.hal_gpioin_event_pin                   0x1fff46c0   Section        0  gpio.o(i.hal_gpioin_event_pin)
    hal_gpioin_event_pin                     0x1fff46c1   Thumb Code    32  gpio.o(i.hal_gpioin_event_pin)
    i.hal_gpioretention_register             0x1fff46e4   Section        0  gpio.o(i.hal_gpioretention_register)
    i.hal_low_power_io_init                  0x1fff4708   Section        0  main.o(i.hal_low_power_io_init)
    hal_low_power_io_init                    0x1fff4709   Thumb Code    98  main.o(i.hal_low_power_io_init)
    i.hal_pwrmgr_LowCurrentLdo_enable        0x1fff4774   Section        0  pwrmgr.o(i.hal_pwrmgr_LowCurrentLdo_enable)
    i.hal_pwrmgr_RAM_retention               0x1fff4778   Section        0  pwrmgr.o(i.hal_pwrmgr_RAM_retention)
    i.hal_pwrmgr_RAM_retention_clr           0x1fff4790   Section        0  pwrmgr.o(i.hal_pwrmgr_RAM_retention_clr)
    i.hal_pwrmgr_RAM_retention_set           0x1fff47a4   Section        0  pwrmgr.o(i.hal_pwrmgr_RAM_retention_set)
    i.hal_pwrmgr_init                        0x1fff47c4   Section        0  pwrmgr.o(i.hal_pwrmgr_init)
    i.hal_pwrmgr_lock                        0x1fff4810   Section        0  pwrmgr.o(i.hal_pwrmgr_lock)
    i.hal_pwrmgr_register                    0x1fff4868   Section        0  pwrmgr.o(i.hal_pwrmgr_register)
    i.hal_pwrmgr_sleep_process               0x1fff48a4   Section        0  pwrmgr.o(i.hal_pwrmgr_sleep_process)
    __tagsym$$used                           0x1fff48a5   Number         0  pwrmgr.o(i.hal_pwrmgr_sleep_process)
    i.hal_pwrmgr_unlock                      0x1fff48d4   Section        0  pwrmgr.o(i.hal_pwrmgr_unlock)
    i.hal_pwrmgr_wakeup_process              0x1fff493c   Section        0  pwrmgr.o(i.hal_pwrmgr_wakeup_process)
    __tagsym$$used                           0x1fff493d   Number         0  pwrmgr.o(i.hal_pwrmgr_wakeup_process)
    i.hal_rfphy_init                         0x1fff49b0   Section        0  main.o(i.hal_rfphy_init)
    hal_rfphy_init                           0x1fff49b1   Thumb Code    90  main.o(i.hal_rfphy_init)
    i.hal_rom_boot_init                      0x1fff4a20   Section        0  patch.o(i.hal_rom_boot_init)
    i.hal_rtc_clock_config                   0x1fff4a28   Section        0  clock.o(i.hal_rtc_clock_config)
    i.hal_spif_cache_init                    0x1fff4aac   Section        0  flash.o(i.hal_spif_cache_init)
    i.hal_uart_init                          0x1fff4ad0   Section        0  uart.o(i.hal_uart_init)
    i.hal_uart_send_buff                     0x1fff4b34   Section        0  uart.o(i.hal_uart_send_buff)
    i.hw_spif_cache_config                   0x1fff4b54   Section        0  flash.o(i.hw_spif_cache_config)
    hw_spif_cache_config                     0x1fff4b55   Thumb Code   104  flash.o(i.hw_spif_cache_config)
    i.l2capPocessFragmentTxData              0x1fff4bd0   Section        0  patch.o(i.l2capPocessFragmentTxData)
    i.llConnTerminate1                       0x1fff4bd4   Section        0  patch.o(i.llConnTerminate1)
    i.llProcessTxData1                       0x1fff4c18   Section        0  patch.o(i.llProcessTxData1)
    i.ll_adptive_adj_next_time1              0x1fff4c24   Section        0  patch.o(i.ll_adptive_adj_next_time1)
    i.ll_generateTxBuffer1                   0x1fff4ce0   Section        0  patch.o(i.ll_generateTxBuffer1)
    i.ll_hw_go1                              0x1fff4e8c   Section        0  patch.o(i.ll_hw_go1)
    i.ll_processBasicIRQ_SRX                 0x1fff5028   Section        0  patch.o(i.ll_processBasicIRQ_SRX)
    i.ll_processBasicIRQ_ScanTRX             0x1fff5040   Section        0  patch.o(i.ll_processBasicIRQ_ScanTRX)
    i.ll_processBasicIRQ_secondaryAdvTRX     0x1fff5058   Section        0  patch.o(i.ll_processBasicIRQ_secondaryAdvTRX)
    i.ll_processBasicIRQ_secondaryInitSRX    0x1fff5070   Section        0  patch.o(i.ll_processBasicIRQ_secondaryInitSRX)
    i.ll_processBasicIRQ_secondaryScanSRX    0x1fff5088   Section        0  patch.o(i.ll_processBasicIRQ_secondaryScanSRX)
    i.log_vsprintf                           0x1fff50a0   Section        0  my_printf.o(i.log_vsprintf)
    log_vsprintf                             0x1fff50a1   Thumb Code   608  my_printf.o(i.log_vsprintf)
    i.main                                   0x1fff5308   Section        0  main.o(i.main)
    i.my_inti                                0x1fff5360   Section        0  my.o(i.my_inti)
    i.number                                 0x1fff5388   Section        0  my_printf.o(i.number)
    number                                   0x1fff5389   Thumb Code   356  my_printf.o(i.number)
    i.osalInitTasks                          0x1fff54f0   Section        0  osal_phyrf.o(i.osalInitTasks)
    i.phy_hw_go                              0x1fff5514   Section        0  phy_rf.o(i.phy_hw_go)
    i.phy_hw_pktFmt_Config                   0x1fff55a4   Section        0  phy_rf.o(i.phy_hw_pktFmt_Config)
    i.phy_hw_set_stx                         0x1fff55f8   Section        0  phy_rf.o(i.phy_hw_set_stx)
    i.phy_hw_set_trx                         0x1fff560a   Section        0  phy_rf.o(i.phy_hw_set_trx)
    i.phy_hw_stop                            0x1fff5620   Section        0  phy_rf.o(i.phy_hw_stop)
    i.phy_hw_timing_setting                  0x1fff5648   Section        0  phy_rf.o(i.phy_hw_timing_setting)
    i.phy_rf_tx                              0x1fff566c   Section        0  phy_rf.o(i.phy_rf_tx)
    i.phy_rx_data_check                      0x1fff56d4   Section        0  phy_rf.o(i.phy_rx_data_check)
    phy_rx_data_check                        0x1fff56d5   Thumb Code    28  phy_rf.o(i.phy_rx_data_check)
    i.phy_set_channel                        0x1fff56f8   Section        0  phy_rf.o(i.phy_set_channel)
    i.phy_tx_buf_updata                      0x1fff5740   Section        0  phy_rf.o(i.phy_tx_buf_updata)
    i.qma7981_init                           0x1fff5770   Section        0  qma7981.o(i.qma7981_init)
    i.qma_read_reg                           0x1fff57d6   Section        0  qma7981.o(i.qma_read_reg)
    i.qma_read_regs                          0x1fff5816   Section        0  qma7981.o(i.qma_read_regs)
    i.qma_write_reg                          0x1fff586e   Section        0  qma7981.o(i.qma_write_reg)
    i.rc32k_calibration                      0x1fff589c   Section        0  rf_phy_driver.o(i.rc32k_calibration)
    i.rc32k_cap_cal                          0x1fff5910   Section        0  patch.o(i.rc32k_cap_cal)
    i.rf_calibrate1                          0x1fff5968   Section        0  rf_phy_driver.o(i.rf_calibrate1)
    i.rf_phy_ana_cfg                         0x1fff5998   Section        0  rf_phy_driver.o(i.rf_phy_ana_cfg)
    i.rf_phy_bb_cfg                          0x1fff5ab0   Section        0  rf_phy_driver.o(i.rf_phy_bb_cfg)
    i.rf_phy_change_cfg0                     0x1fff5c54   Section        0  rf_phy_driver.o(i.rf_phy_change_cfg0)
    i.rf_phy_get_pktFoot                     0x1fff5cfc   Section        0  rf_phy_driver.o(i.rf_phy_get_pktFoot)
    i.rf_phy_get_pktFoot_fromPkt             0x1fff5d2c   Section        0  rf_phy_driver.o(i.rf_phy_get_pktFoot_fromPkt)
    i.rf_phy_ini                             0x1fff5d54   Section        0  rf_phy_driver.o(i.rf_phy_ini)
    i.rf_phy_set_txPower                     0x1fff5d90   Section        0  rf_phy_driver.o(i.rf_phy_set_txPower)
    i.rf_rxDcoc_cfg                          0x1fff5e04   Section        0  rf_phy_driver.o(i.rf_rxDcoc_cfg)
    i.rf_tpCal_gen_cap_arrary                0x1fff5f24   Section        0  rf_phy_driver.o(i.rf_tpCal_gen_cap_arrary)
    i.rf_tp_cal                              0x1fff5f70   Section        0  rf_phy_driver.o(i.rf_tp_cal)
    i.skip_atoi                              0x1fff608c   Section        0  my_printf.o(i.skip_atoi)
    skip_atoi                                0x1fff608d   Thumb Code    32  my_printf.o(i.skip_atoi)
    i.time_cb                                0x1fff60ac   Section        0  my.o(i.time_cb)
    i.txmit_buf_polling                      0x1fff60fc   Section        0  uart.o(i.txmit_buf_polling)
    txmit_buf_polling                        0x1fff60fd   Thumb Code    96  uart.o(i.txmit_buf_polling)
    i.txmit_buf_use_tx_buf                   0x1fff6168   Section        0  uart.o(i.txmit_buf_use_tx_buf)
    txmit_buf_use_tx_buf                     0x1fff6169   Thumb Code   176  uart.o(i.txmit_buf_use_tx_buf)
    i.uart_hw_deinit                         0x1fff6224   Section        0  uart.o(i.uart_hw_deinit)
    uart_hw_deinit                           0x1fff6225   Thumb Code   106  uart.o(i.uart_hw_deinit)
    i.uart_hw_init                           0x1fff62a4   Section        0  uart.o(i.uart_hw_init)
    uart_hw_init                             0x1fff62a5   Thumb Code   308  uart.o(i.uart_hw_init)
    i.uart_wakeup_process_0                  0x1fff63fc   Section        0  uart.o(i.uart_wakeup_process_0)
    uart_wakeup_process_0                    0x1fff63fd   Thumb Code    10  uart.o(i.uart_wakeup_process_0)
    i.uart_wakeup_process_1                  0x1fff6406   Section        0  uart.o(i.uart_wakeup_process_1)
    uart_wakeup_process_1                    0x1fff6407   Thumb Code    10  uart.o(i.uart_wakeup_process_1)
    i.wakeupProcess1                         0x1fff6410   Section        0  patch.o(i.wakeupProcess1)
    i.wakeup_init1                           0x1fff65ec   Section        0  patch.o(i.wakeup_init1)
    .constdata                               0x1fff672c   Section       30  main.o(.constdata)
    .constdata                               0x1fff674c   Section        4  osal_phyrf.o(.constdata)
    .constdata                               0x1fff6750   Section        1  osal_phyrf.o(.constdata)
    .constdata                               0x1fff6754   Section       24  adc_demo.o(.constdata)
    .constdata                               0x1fff676c   Section       12  uart.o(.constdata)
    .constdata                               0x1fff6778   Section      138  gpio.o(.constdata)
    .constdata                               0x1fff6804   Section       16  my_printf.o(.constdata)
    .conststring                             0x1fff6814   Section       77  my_printf.o(.conststring)
    .conststring                             0x1fff6864   Section       17  phy_sec_ext.o(.conststring)
    .data                                    0x1fff68a8   Section        1  main.o(.data)
    .data                                    0x1fff68ac   Section       18  phy_rf.o(.data)
    .data                                    0x1fff68c0   Section        4  osal_phyrf.o(.data)
    .data                                    0x1fff68c4   Section       15  adc.o(.data)
    mAdc_init_flg                            0x1fff68c4   Data           1  adc.o(.data)
    adc_cal_read_flag                        0x1fff68c5   Data           1  adc.o(.data)
    adc_cal_postive                          0x1fff68c6   Data           2  adc.o(.data)
    adc_cal_negtive                          0x1fff68c8   Data           2  adc.o(.data)
    .data                                    0x1fff68d4   Section       16  my.o(.data)
    .data                                    0x1fff68e4   Section        4  timer.o(.data)
    s_ap_callback                            0x1fff68e4   Data           4  timer.o(.data)
    .data                                    0x1fff68e8   Section       24  pwrmgr.o(.data)
    mPwrMode                                 0x1fff68e8   Data           1  pwrmgr.o(.data)
    s_config_swClk0                          0x1fff68ec   Data           4  pwrmgr.o(.data)
    sramRet_config                           0x1fff68f4   Data           4  pwrmgr.o(.data)
    .data                                    0x1fff6900   Section        8  my_printf.o(.data)
    digits                                   0x1fff6900   Data           4  my_printf.o(.data)
    upper_digits                             0x1fff6904   Data           4  my_printf.o(.data)
    .data                                    0x1fff6908   Section       28  flash.o(.data)
    s_xflashCtx                              0x1fff6910   Data           8  flash.o(.data)
    .data                                    0x1fff6924   Section        4  jump_table.o(.data)
    .data                                    0x1fff6928   Section        4  system_armcm0.o(.data)
    .data                                    0x1fff692c   Section       32  patch.o(.data)
    init_flag                                0x1fff692d   Data           1  patch.o(.data)
    .data                                    0x1fff694c   Section        4  phy_sec_ext.o(.data)
    .data                                    0x1fff6950   Section        1  phy_sec_ext.o(.data)
    _section_standby_code_                   0x1fff6952   Section       14  pwrmgr.o(_section_standby_code_)
    __tagsym$$used                           0x1fff6952   Number         0  pwrmgr.o(_section_standby_code_)
    .bss                                     0x1fff6960   Section     1024  main.o(.bss)
    .bss                                     0x1fff6d60   Section      580  phy_rf.o(.bss)
    s_pktCfg                                 0x1fff6f80   Data          12  phy_rf.o(.bss)
    s_phy                                    0x1fff6f8c   Data          24  phy_rf.o(.bss)
    .bss                                     0x1fff6fa4   Section       40  adc.o(.bss)
    mAdc_Ctx                                 0x1fff6fa4   Data          40  adc.o(.bss)
    .bss                                     0x1fff6fcc   Section      128  adc_demo.o(.bss)
    .bss                                     0x1fff704c   Section       64  uart.o(.bss)
    m_uartCtx                                0x1fff704c   Data          64  uart.o(.bss)
    .bss                                     0x1fff708c   Section      300  gpio.o(.bss)
    m_gpioCtx                                0x1fff708c   Data         300  gpio.o(.bss)
    .bss                                     0x1fff71b8   Section      120  pwrmgr.o(.bss)
    mCtx                                     0x1fff71b8   Data         120  pwrmgr.o(.bss)
    .bss                                     0x1fff7230   Section       32  patch.o(.bss)
    s_trng_seed                              0x1fff7230   Data          16  patch.o(.bss)
    s_trng_iv                                0x1fff7240   Data          16  patch.o(.bss)
    .bss                                     0x1fff7250   Section       16  phy_sec_ext.o(.bss)
    STACK                                    0x1fff7260   Section     1024  startup_armcm0.o(STACK)

    Global Symbols

    Symbol Name                              Value     Ov Type        Size  Object(Section)

    BuildAttributes$$THM_ISAv3M$S$PE$A:L22$X:L11$S22$IEEE1$IW$USESV6$~STKCKD$USESV7$~SHL$OTIME$ROPI$EBA8$MICROLIB$REQ8$PRES8$EABIv2 0x00000000   Number         0  anon$$obj.o ABSOLUTE
    __ARM_use_no_argv                        0x00000000   Number         0  main.o ABSOLUTE
    __arm_fini_                               - Undefined Weak Reference
    __cpp_initialize__aeabi_                  - Undefined Weak Reference
    __cxa_finalize                            - Undefined Weak Reference
    _clock_init                               - Undefined Weak Reference
    _microlib_exit                            - Undefined Weak Reference
    __Vectors_Size                           0x00000008   Number         0  startup_armcm0.o ABSOLUTE
    bx_to_application                        0x000000d5   Thumb Code     0  bb_rom_sym_m0.txt ABSOLUTE
    P256_mul64                               0x000001f9   Thumb Code     0  bb_rom_sym_m0.txt ABSOLUTE
    P256_mul128                              0x0000029d   Thumb Code     0  bb_rom_sym_m0.txt ABSOLUTE
    P256_mulmod                              0x0000032d   Thumb Code     0  bb_rom_sym_m0.txt ABSOLUTE
    P256_sqr64                               0x00000567   Thumb Code     0  bb_rom_sym_m0.txt ABSOLUTE
    P256_sqr128                              0x000005c5   Thumb Code     0  bb_rom_sym_m0.txt ABSOLUTE
    P256_sqrmod                              0x00000641   Thumb Code     0  bb_rom_sym_m0.txt ABSOLUTE
    P256_addmod                              0x00000735   Thumb Code     0  bb_rom_sym_m0.txt ABSOLUTE
    P256_submod                              0x00000791   Thumb Code     0  bb_rom_sym_m0.txt ABSOLUTE
    P256_load_1                              0x000007c3   Thumb Code     0  bb_rom_sym_m0.txt ABSOLUTE
    P256_to_montgomery                       0x000007d7   Thumb Code     0  bb_rom_sym_m0.txt ABSOLUTE
    P256_from_montgomery                     0x00000801   Thumb Code     0  bb_rom_sym_m0.txt ABSOLUTE
    P256_point_is_on_curve                   0x0000081b   Thumb Code     0  bb_rom_sym_m0.txt ABSOLUTE
    P256_greater_or_equal_than               0x0000086d   Thumb Code     0  bb_rom_sym_m0.txt ABSOLUTE
    P256_negate_mod_m_if                     0x00000887   Thumb Code     0  bb_rom_sym_m0.txt ABSOLUTE
    P256_copy32                              0x000008a9   Thumb Code     0  bb_rom_sym_m0.txt ABSOLUTE
    P256_copy32_unaligned                    0x000008b5   Thumb Code     0  bb_rom_sym_m0.txt ABSOLUTE
    P256_select                              0x000008c7   Thumb Code     0  bb_rom_sym_m0.txt ABSOLUTE
    P256_double_j                            0x00000927   Thumb Code     0  bb_rom_sym_m0.txt ABSOLUTE
    P256_add_j                               0x0000092b   Thumb Code     0  bb_rom_sym_m0.txt ABSOLUTE
    P256_div2mod                             0x00000983   Thumb Code     0  bb_rom_sym_m0.txt ABSOLUTE
    P256_interpreter                         0x000009e9   Thumb Code     0  bb_rom_sym_m0.txt ABSOLUTE
    P256_sqrmod_many_and_mulmod              0x00000a4d   Thumb Code     0  bb_rom_sym_m0.txt ABSOLUTE
    P256_modinv                              0x00000a6d   Thumb Code     0  bb_rom_sym_m0.txt ABSOLUTE
    P256_jacobian_to_affine                  0x00000af7   Thumb Code     0  bb_rom_sym_m0.txt ABSOLUTE
    P256_abs_int                             0x00000b33   Thumb Code     0  bb_rom_sym_m0.txt ABSOLUTE
    P256_pointmult                           0x00000b41   Thumb Code     0  bb_rom_sym_m0.txt ABSOLUTE
    P256_ecdh_keygen                         0x00000d03   Thumb Code     0  bb_rom_sym_m0.txt ABSOLUTE
    P256_ecdh_shared_secret                  0x00000d0b   Thumb Code     0  bb_rom_sym_m0.txt ABSOLUTE
    __aeabi_uidiv                            0x00000e09   Thumb Code     0  bb_rom_sym_m0.txt ABSOLUTE
    __aeabi_uidivmod                         0x00000e09   Thumb Code     0  bb_rom_sym_m0.txt ABSOLUTE
    __aeabi_idiv                             0x00000e35   Thumb Code     0  bb_rom_sym_m0.txt ABSOLUTE
    __aeabi_idivmod                          0x00000e35   Thumb Code     0  bb_rom_sym_m0.txt ABSOLUTE
    __aeabi_memcpy                           0x00000e81   Thumb Code     0  bb_rom_sym_m0.txt ABSOLUTE
    __aeabi_memcpy4                          0x00000e81   Thumb Code     0  bb_rom_sym_m0.txt ABSOLUTE
    __aeabi_memcpy8                          0x00000e81   Thumb Code     0  bb_rom_sym_m0.txt ABSOLUTE
    __aeabi_memset                           0x00000ea5   Thumb Code     0  bb_rom_sym_m0.txt ABSOLUTE
    __aeabi_memset4                          0x00000ea5   Thumb Code     0  bb_rom_sym_m0.txt ABSOLUTE
    __aeabi_memset8                          0x00000ea5   Thumb Code     0  bb_rom_sym_m0.txt ABSOLUTE
    __aeabi_memclr                           0x00000eb3   Thumb Code     0  bb_rom_sym_m0.txt ABSOLUTE
    __aeabi_memclr4                          0x00000eb3   Thumb Code     0  bb_rom_sym_m0.txt ABSOLUTE
    __aeabi_memclr8                          0x00000eb3   Thumb Code     0  bb_rom_sym_m0.txt ABSOLUTE
    memset                                   0x00000eb7   Thumb Code     0  bb_rom_sym_m0.txt ABSOLUTE
    strlen                                   0x00000ec9   Thumb Code     0  bb_rom_sym_m0.txt ABSOLUTE
    strcmp                                   0x00000ed7   Thumb Code     0  bb_rom_sym_m0.txt ABSOLUTE
    memcmp                                   0x00000ef3   Thumb Code     0  bb_rom_sym_m0.txt ABSOLUTE
    strncmp                                  0x00000f0d   Thumb Code     0  bb_rom_sym_m0.txt ABSOLUTE
    strtok                                   0x00000f2d   Thumb Code     0  bb_rom_sym_m0.txt ABSOLUTE
    __aeabi_uread4                           0x00000f75   Thumb Code     0  bb_rom_sym_m0.txt ABSOLUTE
    __rt_uread4                              0x00000f75   Thumb Code     0  bb_rom_sym_m0.txt ABSOLUTE
    _uread4                                  0x00000f75   Thumb Code     0  bb_rom_sym_m0.txt ABSOLUTE
    strtoul                                  0x00000f89   Thumb Code     0  bb_rom_sym_m0.txt ABSOLUTE
    __rt_ctype_table                         0x00001001   Thumb Code     0  bb_rom_sym_m0.txt ABSOLUTE
    _strtoul                                 0x00001009   Thumb Code     0  bb_rom_sym_m0.txt ABSOLUTE
    GPIO_IRQHandler                          0x0000112d   Thumb Code     0  bb_rom_sym_m0.txt ABSOLUTE
    HCI_CommandCompleteEvent                 0x00001175   Thumb Code     0  bb_rom_sym_m0.txt ABSOLUTE
    HCI_CommandStatusEvent                   0x000011fd   Thumb Code     0  bb_rom_sym_m0.txt ABSOLUTE
    HCI_DataBufferOverflowEvent              0x00001251   Thumb Code     0  bb_rom_sym_m0.txt ABSOLUTE
    HCI_DisconnectCmd                        0x0000128d   Thumb Code     0  bb_rom_sym_m0.txt ABSOLUTE
    HCI_EXT_AdvEventNoticeCmd                0x000012a1   Thumb Code     0  bb_rom_sym_m0.txt ABSOLUTE
    HCI_EXT_BuildRevisionCmd                 0x000012a9   Thumb Code     0  bb_rom_sym_m0.txt ABSOLUTE
    HCI_EXT_ClkDivOnHaltCmd                  0x000012e5   Thumb Code     0  bb_rom_sym_m0.txt ABSOLUTE
    HCI_EXT_ConnEventNoticeCmd               0x0000130d   Thumb Code     0  bb_rom_sym_m0.txt ABSOLUTE
    HCI_EXT_DeclareNvUsageCmd                0x00001315   Thumb Code     0  bb_rom_sym_m0.txt ABSOLUTE
    HCI_EXT_DecryptCmd                       0x00001339   Thumb Code     0  bb_rom_sym_m0.txt ABSOLUTE
    HCI_EXT_DelaySleepCmd                    0x0000137d   Thumb Code     0  bb_rom_sym_m0.txt ABSOLUTE
    HCI_EXT_DisconnectImmedCmd               0x000013a5   Thumb Code     0  bb_rom_sym_m0.txt ABSOLUTE
    HCI_EXT_EnablePTMCmd                     0x000013cd   Thumb Code     0  bb_rom_sym_m0.txt ABSOLUTE
    HCI_EXT_EndModemTestCmd                  0x000013e1   Thumb Code     0  bb_rom_sym_m0.txt ABSOLUTE
    HCI_EXT_HaltDuringRfCmd                  0x00001409   Thumb Code     0  bb_rom_sym_m0.txt ABSOLUTE
    HCI_EXT_ModemHopTestTxCmd                0x00001431   Thumb Code     0  bb_rom_sym_m0.txt ABSOLUTE
    HCI_EXT_ModemTestRxCmd                   0x00001459   Thumb Code     0  bb_rom_sym_m0.txt ABSOLUTE
    HCI_EXT_ModemTestTxCmd                   0x00001481   Thumb Code     0  bb_rom_sym_m0.txt ABSOLUTE
    HCI_EXT_NumComplPktsLimitCmd             0x000014a5   Thumb Code     0  bb_rom_sym_m0.txt ABSOLUTE
    HCI_EXT_OnePktPerEvtCmd                  0x000014c9   Thumb Code     0  bb_rom_sym_m0.txt ABSOLUTE
    HCI_EXT_OverlappedProcessingCmd          0x000014f5   Thumb Code     0  bb_rom_sym_m0.txt ABSOLUTE
    HCI_EXT_PERbyChanCmd                     0x0000151d   Thumb Code     0  bb_rom_sym_m0.txt ABSOLUTE
    HCI_EXT_PacketErrorRateCmd               0x00001541   Thumb Code     0  bb_rom_sym_m0.txt ABSOLUTE
    HCI_EXT_ResetSystemCmd                   0x00001575   Thumb Code     0  bb_rom_sym_m0.txt ABSOLUTE
    HCI_EXT_SaveFreqTuneCmd                  0x0000159d   Thumb Code     0  bb_rom_sym_m0.txt ABSOLUTE
    HCI_EXT_SetBDADDRCmd                     0x000015c5   Thumb Code     0  bb_rom_sym_m0.txt ABSOLUTE
    HCI_EXT_SetFastTxResponseTimeCmd         0x00001601   Thumb Code     0  bb_rom_sym_m0.txt ABSOLUTE
    HCI_EXT_SetFreqTuneCmd                   0x00001629   Thumb Code     0  bb_rom_sym_m0.txt ABSOLUTE
    HCI_EXT_SetLocalSupportedFeaturesCmd     0x00001651   Thumb Code     0  bb_rom_sym_m0.txt ABSOLUTE
    HCI_EXT_SetMaxDtmTxPowerCmd              0x00001679   Thumb Code     0  bb_rom_sym_m0.txt ABSOLUTE
    HCI_EXT_SetRxGainCmd                     0x000016a1   Thumb Code     0  bb_rom_sym_m0.txt ABSOLUTE
    HCI_EXT_SetSCACmd                        0x000016d1   Thumb Code     0  bb_rom_sym_m0.txt ABSOLUTE
    HCI_EXT_SetSlaveLatencyOverrideCmd       0x000016f9   Thumb Code     0  bb_rom_sym_m0.txt ABSOLUTE
    HCI_EXT_SetTxPowerCmd                    0x00001721   Thumb Code     0  bb_rom_sym_m0.txt ABSOLUTE
    HCI_ExtTaskRegister                      0x00001751   Thumb Code     0  bb_rom_sym_m0.txt ABSOLUTE
    HCI_GAPTaskRegister                      0x0000175d   Thumb Code     0  bb_rom_sym_m0.txt ABSOLUTE
    HCI_HardwareErrorEvent                   0x00001769   Thumb Code     0  bb_rom_sym_m0.txt ABSOLUTE
    HCI_HostBufferSizeCmd                    0x000017b1   Thumb Code     0  bb_rom_sym_m0.txt ABSOLUTE
    HCI_HostNumCompletedPktCmd               0x000017e1   Thumb Code     0  bb_rom_sym_m0.txt ABSOLUTE
    HCI_Init                                 0x0000183d   Thumb Code     0  bb_rom_sym_m0.txt ABSOLUTE
    HCI_L2CAPTaskRegister                    0x00001879   Thumb Code     0  bb_rom_sym_m0.txt ABSOLUTE
    HCI_LE_AddDevToResolvingListCmd          0x000018a1   Thumb Code     0  bb_rom_sym_m0.txt ABSOLUTE
    HCI_LE_AddWhiteListCmd                   0x000018bd   Thumb Code     0  bb_rom_sym_m0.txt ABSOLUTE
    HCI_LE_ClearAdvSetsCmd                   0x000018e1   Thumb Code     0  bb_rom_sym_m0.txt ABSOLUTE
    HCI_LE_ClearResolvingListCmd             0x00001919   Thumb Code     0  bb_rom_sym_m0.txt ABSOLUTE
    HCI_LE_ClearWhiteListCmd                 0x00001935   Thumb Code     0  bb_rom_sym_m0.txt ABSOLUTE
    HCI_LE_Connection_CTE_Request_EnableCmd  0x0000196d   Thumb Code     0  bb_rom_sym_m0.txt ABSOLUTE
    HCI_LE_Connection_CTE_Response_EnableCmd 0x00001999   Thumb Code     0  bb_rom_sym_m0.txt ABSOLUTE
    HCI_LE_ConnectionlessCTE_TransmitEnableCmd 0x000019c1   Thumb Code     0  bb_rom_sym_m0.txt ABSOLUTE
    HCI_LE_ConnectionlessCTE_TransmitParamCmd 0x000019dd   Thumb Code     0  bb_rom_sym_m0.txt ABSOLUTE
    HCI_LE_ConnectionlessIQ_SampleEnableCmd  0x00001a01   Thumb Code     0  bb_rom_sym_m0.txt ABSOLUTE
    HCI_LE_CreateConnCancelCmd               0x00001a31   Thumb Code     0  bb_rom_sym_m0.txt ABSOLUTE
    HCI_LE_CreateConnCmd                     0x00001a4d   Thumb Code     0  bb_rom_sym_m0.txt ABSOLUTE
    HCI_LE_EncryptCmd                        0x00001a89   Thumb Code     0  bb_rom_sym_m0.txt ABSOLUTE
    HCI_LE_ExtendedCreateConnectionCmd       0x00001ac1   Thumb Code     0  bb_rom_sym_m0.txt ABSOLUTE
    HCI_LE_PeriodicAdvertisingCreateSyncCancelCmd 0x00001b59   Thumb Code     0  bb_rom_sym_m0.txt ABSOLUTE
    HCI_LE_PeriodicAdvertisingCreateSyncCmd  0x00001b75   Thumb Code     0  bb_rom_sym_m0.txt ABSOLUTE
    HCI_LE_PeriodicAdvertisingTerminateSyncCmd 0x00001b9d   Thumb Code     0  bb_rom_sym_m0.txt ABSOLUTE
    HCI_LE_READ_Anatenna_InfoCmd             0x00001bb9   Thumb Code     0  bb_rom_sym_m0.txt ABSOLUTE
    HCI_LE_RandCmd                           0x00001bd9   Thumb Code     0  bb_rom_sym_m0.txt ABSOLUTE
    HCI_LE_ReadAdvChanTxPowerCmd             0x00001c09   Thumb Code     0  bb_rom_sym_m0.txt ABSOLUTE
    HCI_LE_ReadBufSizeCmd                    0x00001c29   Thumb Code     0  bb_rom_sym_m0.txt ABSOLUTE
    HCI_LE_ReadChannelMapCmd                 0x00001c4d   Thumb Code     0  bb_rom_sym_m0.txt ABSOLUTE
    HCI_LE_ReadLocalSupportedFeaturesCmd     0x00001c99   Thumb Code     0  bb_rom_sym_m0.txt ABSOLUTE
    HCI_LE_ReadMaxDataLengthCmd              0x00001cb9   Thumb Code     0  bb_rom_sym_m0.txt ABSOLUTE
    HCI_LE_ReadMaximumAdvDataLengthCmd       0x00001ce9   Thumb Code     0  bb_rom_sym_m0.txt ABSOLUTE
    HCI_LE_ReadNumberOfSupportAdvSetCmd      0x00001d11   Thumb Code     0  bb_rom_sym_m0.txt ABSOLUTE
    HCI_LE_ReadPhyMode                       0x00001d71   Thumb Code     0  bb_rom_sym_m0.txt ABSOLUTE
    HCI_LE_ReadRemoteUsedFeaturesCmd         0x00001db1   Thumb Code     0  bb_rom_sym_m0.txt ABSOLUTE
    HCI_LE_ReadResolvingListSizeCmd          0x00001dc5   Thumb Code     0  bb_rom_sym_m0.txt ABSOLUTE
    HCI_LE_ReadSuggestedDefaultDataLengthCmd 0x00001de5   Thumb Code     0  bb_rom_sym_m0.txt ABSOLUTE
    HCI_LE_ReadSupportedStatesCmd            0x00001e15   Thumb Code     0  bb_rom_sym_m0.txt ABSOLUTE
    HCI_LE_ReadWhiteListSizeCmd              0x00001e3d   Thumb Code     0  bb_rom_sym_m0.txt ABSOLUTE
    HCI_LE_ReceiverTestCmd                   0x00001e9d   Thumb Code     0  bb_rom_sym_m0.txt ABSOLUTE
    HCI_LE_RemoveAdvSetCmd                   0x00001eb1   Thumb Code     0  bb_rom_sym_m0.txt ABSOLUTE
    HCI_LE_RemoveResolvingListCmd            0x00001ee9   Thumb Code     0  bb_rom_sym_m0.txt ABSOLUTE
    HCI_LE_RemoveWhiteListCmd                0x00001f0d   Thumb Code     0  bb_rom_sym_m0.txt ABSOLUTE
    HCI_LE_SetAddressResolutionEnableCmd     0x00001f31   Thumb Code     0  bb_rom_sym_m0.txt ABSOLUTE
    HCI_LE_SetAdvDataCmd                     0x00001f4d   Thumb Code     0  bb_rom_sym_m0.txt ABSOLUTE
    HCI_LE_SetAdvEnableCmd                   0x00001f69   Thumb Code     0  bb_rom_sym_m0.txt ABSOLUTE
    HCI_LE_SetAdvParamCmd                    0x00001f85   Thumb Code     0  bb_rom_sym_m0.txt ABSOLUTE
    HCI_LE_SetDataLengthCmd                  0x00001fb1   Thumb Code     0  bb_rom_sym_m0.txt ABSOLUTE
    HCI_LE_SetDefaultPhyMode                 0x00001fd9   Thumb Code     0  bb_rom_sym_m0.txt ABSOLUTE
    HCI_LE_SetEventMaskCmd                   0x00001ff5   Thumb Code     0  bb_rom_sym_m0.txt ABSOLUTE
    HCI_LE_SetExtAdvDataCmd                  0x0000202d   Thumb Code     0  bb_rom_sym_m0.txt ABSOLUTE
    HCI_LE_SetExtAdvEnableCmd                0x0000204d   Thumb Code     0  bb_rom_sym_m0.txt ABSOLUTE
    HCI_LE_SetExtAdvParamCmd                 0x0000206d   Thumb Code     0  bb_rom_sym_m0.txt ABSOLUTE
    HCI_LE_SetExtAdvSetRandomAddressCmd      0x000020c1   Thumb Code     0  bb_rom_sym_m0.txt ABSOLUTE
    HCI_LE_SetExtScanRspDataCmd              0x000020dd   Thumb Code     0  bb_rom_sym_m0.txt ABSOLUTE
    HCI_LE_SetExtendedScanEnableCmd          0x000020fd   Thumb Code     0  bb_rom_sym_m0.txt ABSOLUTE
    HCI_LE_SetExtendedScanParametersCmd      0x00002119   Thumb Code     0  bb_rom_sym_m0.txt ABSOLUTE
    HCI_LE_SetPeriodicAdvDataCmd             0x00002159   Thumb Code     0  bb_rom_sym_m0.txt ABSOLUTE
    HCI_LE_SetPeriodicAdvEnableCmd           0x00002175   Thumb Code     0  bb_rom_sym_m0.txt ABSOLUTE
    HCI_LE_SetPeriodicAdvParameterCmd        0x00002191   Thumb Code     0  bb_rom_sym_m0.txt ABSOLUTE
    HCI_LE_SetPhyMode                        0x000021ad   Thumb Code     0  bb_rom_sym_m0.txt ABSOLUTE
    HCI_LE_SetRandomAddressCmd               0x000021c5   Thumb Code     0  bb_rom_sym_m0.txt ABSOLUTE
    HCI_LE_SetResolvablePrivateAddressTimeoutCmd 0x000021e9   Thumb Code     0  bb_rom_sym_m0.txt ABSOLUTE
    HCI_LE_SetScanEnableCmd                  0x00002219   Thumb Code     0  bb_rom_sym_m0.txt ABSOLUTE
    HCI_LE_SetScanParamCmd                   0x00002235   Thumb Code     0  bb_rom_sym_m0.txt ABSOLUTE
    HCI_LE_SetScanRspDataCmd                 0x00002255   Thumb Code     0  bb_rom_sym_m0.txt ABSOLUTE
    HCI_LE_Set_ConnectionCTE_ReceiveParamCmd 0x00002271   Thumb Code     0  bb_rom_sym_m0.txt ABSOLUTE
    HCI_LE_Set_ConnectionCTE_TransmitParamCmd 0x0000229d   Thumb Code     0  bb_rom_sym_m0.txt ABSOLUTE
    HCI_LE_StartEncyptCmd                    0x000022e1   Thumb Code     0  bb_rom_sym_m0.txt ABSOLUTE
    HCI_LE_TestEndCmd                        0x000022f5   Thumb Code     0  bb_rom_sym_m0.txt ABSOLUTE
    HCI_LE_TransmitterTestCmd                0x0000231d   Thumb Code     0  bb_rom_sym_m0.txt ABSOLUTE
    HCI_LE_WriteSuggestedDefaultDataLengthCmd 0x00002339   Thumb Code     0  bb_rom_sym_m0.txt ABSOLUTE
    HCI_NumOfCompletedPacketsEvent           0x00002371   Thumb Code     0  bb_rom_sym_m0.txt ABSOLUTE
    HCI_PPLUS_AdvEventDoneNoticeCmd          0x00002401   Thumb Code     0  bb_rom_sym_m0.txt ABSOLUTE
    HCI_PPLUS_ConnEventDoneNoticeCmd         0x00002421   Thumb Code     0  bb_rom_sym_m0.txt ABSOLUTE
    HCI_PPLUS_DateLengthChangedNoticeCmd     0x00002461   Thumb Code     0  bb_rom_sym_m0.txt ABSOLUTE
    HCI_PPLUS_ExtendTRXCmd                   0x000024a1   Thumb Code     0  bb_rom_sym_m0.txt ABSOLUTE
    HCI_PPLUS_PhyUpdateNoticeCmd             0x000024bd   Thumb Code     0  bb_rom_sym_m0.txt ABSOLUTE
    HCI_ProcessEvent                         0x000024fd   Thumb Code     0  bb_rom_sym_m0.txt ABSOLUTE
    HCI_ReadBDADDRCmd                        0x00002551   Thumb Code     0  bb_rom_sym_m0.txt ABSOLUTE
    HCI_ReadLocalSupportedCommandsCmd        0x00002571   Thumb Code     0  bb_rom_sym_m0.txt ABSOLUTE
    HCI_ReadLocalSupportedFeaturesCmd        0x00002589   Thumb Code     0  bb_rom_sym_m0.txt ABSOLUTE
    HCI_ReadLocalVersionInfoCmd              0x000025ad   Thumb Code     0  bb_rom_sym_m0.txt ABSOLUTE
    HCI_ReadRemoteVersionInfoCmd             0x000025f5   Thumb Code     0  bb_rom_sym_m0.txt ABSOLUTE
    HCI_ReadRssiCmd                          0x00002625   Thumb Code     0  bb_rom_sym_m0.txt ABSOLUTE
    HCI_ReadTransmitPowerLevelCmd            0x00002651   Thumb Code     0  bb_rom_sym_m0.txt ABSOLUTE
    HCI_ResetCmd                             0x0000267d   Thumb Code     0  bb_rom_sym_m0.txt ABSOLUTE
    HCI_ReverseBytes                         0x000026a9   Thumb Code     0  bb_rom_sym_m0.txt ABSOLUTE
    HCI_SMPTaskRegister                      0x000026c9   Thumb Code     0  bb_rom_sym_m0.txt ABSOLUTE
    HCI_SendCommandCompleteEvent             0x000026d5   Thumb Code     0  bb_rom_sym_m0.txt ABSOLUTE
    HCI_SendCommandStatusEvent               0x0000277d   Thumb Code     0  bb_rom_sym_m0.txt ABSOLUTE
    HCI_SendControllerToHostEvent            0x0000279d   Thumb Code     0  bb_rom_sym_m0.txt ABSOLUTE
    HCI_SendDataPkt                          0x000027e9   Thumb Code     0  bb_rom_sym_m0.txt ABSOLUTE
    HCI_SetControllerToHostFlowCtrlCmd       0x00002819   Thumb Code     0  bb_rom_sym_m0.txt ABSOLUTE
    HCI_SetEventMaskCmd                      0x0000285d   Thumb Code     0  bb_rom_sym_m0.txt ABSOLUTE
    HCI_TestAppTaskRegister                  0x0000288d   Thumb Code     0  bb_rom_sym_m0.txt ABSOLUTE
    HCI_ValidConnTimeParams                  0x00002899   Thumb Code     0  bb_rom_sym_m0.txt ABSOLUTE
    HCI_VendorSpecifcCommandCompleteEvent    0x000028d9   Thumb Code     0  bb_rom_sym_m0.txt ABSOLUTE
    HCI_bm_alloc                             0x000028e9   Thumb Code     0  bb_rom_sym_m0.txt ABSOLUTE
    HardFault_Handler                        0x000028f1   Thumb Code     0  bb_rom_sym_m0.txt ABSOLUTE
    HardFault_IRQHandler                     0x00002909   Thumb Code     0  bb_rom_sym_m0.txt ABSOLUTE
    LL_AddResolvingListLDevice               0x000029dd   Thumb Code     0  bb_rom_sym_m0.txt ABSOLUTE
    LL_AddWhiteListDevice                    0x00002a95   Thumb Code     0  bb_rom_sym_m0.txt ABSOLUTE
    LL_AdvReportCback                        0x00002b11   Thumb Code     0  bb_rom_sym_m0.txt ABSOLUTE
    LL_CTE_Report_FailedCback                0x00002ca1   Thumb Code     0  bb_rom_sym_m0.txt ABSOLUTE
    LL_ChanMapUpdate                         0x00002d0d   Thumb Code     0  bb_rom_sym_m0.txt ABSOLUTE
    LL_ClearAdvSets                          0x00002e2d   Thumb Code     0  bb_rom_sym_m0.txt ABSOLUTE
    LL_ClearResolvingList                    0x00002f41   Thumb Code     0  bb_rom_sym_m0.txt ABSOLUTE
    LL_ClearWhiteList                        0x00002fbd   Thumb Code     0  bb_rom_sym_m0.txt ABSOLUTE
    LL_ConnActive                            0x00003011   Thumb Code     0  bb_rom_sym_m0.txt ABSOLUTE
    LL_ConnParamUpdateCback                  0x00003039   Thumb Code     0  bb_rom_sym_m0.txt ABSOLUTE
    LL_ConnUpdate                            0x000030e5   Thumb Code     0  bb_rom_sym_m0.txt ABSOLUTE
    LL_ConnectionCompleteCback               0x000031b9   Thumb Code     0  bb_rom_sym_m0.txt ABSOLUTE
    LL_ConnectionIQReportCback               0x000032d5   Thumb Code     0  bb_rom_sym_m0.txt ABSOLUTE
    LL_Connection_CTE_Request_Enable         0x000033e5   Thumb Code     0  bb_rom_sym_m0.txt ABSOLUTE
    LL_Connection_CTE_Response_Enable        0x00003499   Thumb Code     0  bb_rom_sym_m0.txt ABSOLUTE
    LL_ConnectionlessCTE_TransmitEnable      0x00003505   Thumb Code     0  bb_rom_sym_m0.txt ABSOLUTE
    LL_ConnectionlessCTE_TransmitParam       0x000035e5   Thumb Code     0  bb_rom_sym_m0.txt ABSOLUTE
    LL_ConnectionlessIQReportCback           0x000036c1   Thumb Code     0  bb_rom_sym_m0.txt ABSOLUTE
    LL_ConnectionlessIQ_SampleEnable         0x000037c5   Thumb Code     0  bb_rom_sym_m0.txt ABSOLUTE
    LL_CreateConn                            0x00003901   Thumb Code     0  bb_rom_sym_m0.txt ABSOLUTE
    LL_CreateConn0                           0x00003949   Thumb Code     0  bb_rom_sym_m0.txt ABSOLUTE
    LL_CreateConnCancel                      0x00003c91   Thumb Code     0  bb_rom_sym_m0.txt ABSOLUTE
    LL_CtrlToHostFlowControl                 0x00003d59   Thumb Code     0  bb_rom_sym_m0.txt ABSOLUTE
    LL_DataLengthChangeCback                 0x00003d71   Thumb Code     0  bb_rom_sym_m0.txt ABSOLUTE
    LL_DirectTestEnd                         0x00003e3d   Thumb Code     0  bb_rom_sym_m0.txt ABSOLUTE
    LL_DirectTestTxTest                      0x00003e95   Thumb Code     0  bb_rom_sym_m0.txt ABSOLUTE
    LL_Disconnect                            0x00003eb1   Thumb Code     0  bb_rom_sym_m0.txt ABSOLUTE
    LL_DisconnectCback                       0x00003f41   Thumb Code     0  bb_rom_sym_m0.txt ABSOLUTE
    LL_ENC_AES128_Encrypt                    0x00003fc5   Thumb Code     0  bb_rom_sym_m0.txt ABSOLUTE
    LL_ENC_AES128_Encrypt0                   0x00003fdd   Thumb Code     0  bb_rom_sym_m0.txt ABSOLUTE
    LL_ENC_Decrypt                           0x000040ed   Thumb Code     0  bb_rom_sym_m0.txt ABSOLUTE
    LL_ENC_Decrypt0                          0x00004105   Thumb Code     0  bb_rom_sym_m0.txt ABSOLUTE
    LL_ENC_Encrypt                           0x00004261   Thumb Code     0  bb_rom_sym_m0.txt ABSOLUTE
    LL_ENC_Encrypt0                          0x00004279   Thumb Code     0  bb_rom_sym_m0.txt ABSOLUTE
    LL_ENC_GenDeviceIV                       0x000043c1   Thumb Code     0  bb_rom_sym_m0.txt ABSOLUTE
    LL_ENC_GenDeviceSKD                      0x000043f1   Thumb Code     0  bb_rom_sym_m0.txt ABSOLUTE
    LL_ENC_GenerateNonce                     0x00004421   Thumb Code     0  bb_rom_sym_m0.txt ABSOLUTE
    LL_ENC_GeneratePseudoRandNum             0x00004459   Thumb Code     0  bb_rom_sym_m0.txt ABSOLUTE
    LL_ENC_GenerateTrueRandNum               0x00004469   Thumb Code     0  bb_rom_sym_m0.txt ABSOLUTE
    LL_ENC_LoadKey                           0x00004489   Thumb Code     0  bb_rom_sym_m0.txt ABSOLUTE
    LL_ENC_ReverseBytes                      0x000044e1   Thumb Code     0  bb_rom_sym_m0.txt ABSOLUTE
    LL_ENC_sm_ah                             0x00004501   Thumb Code     0  bb_rom_sym_m0.txt ABSOLUTE
    LL_EXT_AdvEventNotice                    0x00004543   Thumb Code     0  bb_rom_sym_m0.txt ABSOLUTE
    LL_EXT_BuildRevision                     0x00004547   Thumb Code     0  bb_rom_sym_m0.txt ABSOLUTE
    LL_EXT_ClkDivOnHalt                      0x0000454b   Thumb Code     0  bb_rom_sym_m0.txt ABSOLUTE
    LL_EXT_ConnEventNotice                   0x0000454f   Thumb Code     0  bb_rom_sym_m0.txt ABSOLUTE
    LL_EXT_DeclareNvUsage                    0x00004553   Thumb Code     0  bb_rom_sym_m0.txt ABSOLUTE
    LL_EXT_Decrypt                           0x00004557   Thumb Code     0  bb_rom_sym_m0.txt ABSOLUTE
    LL_EXT_DelaySleep                        0x0000455b   Thumb Code     0  bb_rom_sym_m0.txt ABSOLUTE
    LL_EXT_DisconnectImmed                   0x0000455f   Thumb Code     0  bb_rom_sym_m0.txt ABSOLUTE
    LL_EXT_EndModemTest                      0x00004563   Thumb Code     0  bb_rom_sym_m0.txt ABSOLUTE
    LL_EXT_HaltDuringRf                      0x00004567   Thumb Code     0  bb_rom_sym_m0.txt ABSOLUTE
    LL_EXT_Init_IQ_pBuff                     0x0000456d   Thumb Code     0  bb_rom_sym_m0.txt ABSOLUTE
    LL_EXT_MapPmIoPort                       0x00004581   Thumb Code     0  bb_rom_sym_m0.txt ABSOLUTE
    LL_EXT_ModemHopTestTx                    0x00004585   Thumb Code     0  bb_rom_sym_m0.txt ABSOLUTE
    LL_EXT_ModemTestRx                       0x00004589   Thumb Code     0  bb_rom_sym_m0.txt ABSOLUTE
    LL_EXT_ModemTestTx                       0x0000458d   Thumb Code     0  bb_rom_sym_m0.txt ABSOLUTE
    LL_EXT_NumComplPktsLimit                 0x00004591   Thumb Code     0  bb_rom_sym_m0.txt ABSOLUTE
    LL_EXT_OnePacketPerEvent                 0x000045ad   Thumb Code     0  bb_rom_sym_m0.txt ABSOLUTE
    LL_EXT_OverlappedProcessing              0x000045b1   Thumb Code     0  bb_rom_sym_m0.txt ABSOLUTE
    LL_EXT_PERbyChan                         0x000045b5   Thumb Code     0  bb_rom_sym_m0.txt ABSOLUTE
    LL_EXT_PacketErrorRate                   0x000045b9   Thumb Code     0  bb_rom_sym_m0.txt ABSOLUTE
    LL_EXT_PacketErrorRateCback              0x000045bd   Thumb Code     0  bb_rom_sym_m0.txt ABSOLUTE
    LL_EXT_ResetSystem                       0x000045f9   Thumb Code     0  bb_rom_sym_m0.txt ABSOLUTE
    LL_EXT_SaveFreqTune                      0x000045fd   Thumb Code     0  bb_rom_sym_m0.txt ABSOLUTE
    LL_EXT_SetBDADDR                         0x00004601   Thumb Code     0  bb_rom_sym_m0.txt ABSOLUTE
    LL_EXT_SetFastTxResponseTime             0x00004605   Thumb Code     0  bb_rom_sym_m0.txt ABSOLUTE
    LL_EXT_SetFreqTune                       0x00004609   Thumb Code     0  bb_rom_sym_m0.txt ABSOLUTE
    LL_EXT_SetLocalSupportedFeatures         0x0000460d   Thumb Code     0  bb_rom_sym_m0.txt ABSOLUTE
    LL_EXT_SetMaxDtmTxPower                  0x00004611   Thumb Code     0  bb_rom_sym_m0.txt ABSOLUTE
    LL_EXT_SetRxGain                         0x00004615   Thumb Code     0  bb_rom_sym_m0.txt ABSOLUTE
    LL_EXT_SetRxGainCback                    0x00004619   Thumb Code     0  bb_rom_sym_m0.txt ABSOLUTE
    LL_EXT_SetSCA                            0x00004635   Thumb Code     0  bb_rom_sym_m0.txt ABSOLUTE
    LL_EXT_SetSlaveLatencyOverride           0x00004639   Thumb Code     0  bb_rom_sym_m0.txt ABSOLUTE
    LL_EXT_SetTxPower                        0x0000463d   Thumb Code     0  bb_rom_sym_m0.txt ABSOLUTE
    LL_EXT_SetTxPowerCback                   0x00004679   Thumb Code     0  bb_rom_sym_m0.txt ABSOLUTE
    LL_EncChangeCback                        0x00004699   Thumb Code     0  bb_rom_sym_m0.txt ABSOLUTE
    LL_EncKeyRefreshCback                    0x00004715   Thumb Code     0  bb_rom_sym_m0.txt ABSOLUTE
    LL_EncLtkReqCback                        0x00004831   Thumb Code     0  bb_rom_sym_m0.txt ABSOLUTE
    LL_Encrypt                               0x000048e5   Thumb Code     0  bb_rom_sym_m0.txt ABSOLUTE
    LL_ExtAdvReportCback                     0x00004a8d   Thumb Code     0  bb_rom_sym_m0.txt ABSOLUTE
    LL_ExtendedCreateConnection              0x00004bfd   Thumb Code     0  bb_rom_sym_m0.txt ABSOLUTE
    LL_IRQHandler                            0x00004e25   Thumb Code     0  bb_rom_sym_m0.txt ABSOLUTE
    LL_Init                                  0x00004eb1   Thumb Code     0  bb_rom_sym_m0.txt ABSOLUTE
    LL_InitConnectContext                    0x00005045   Thumb Code     0  bb_rom_sym_m0.txt ABSOLUTE
    LL_InitExtendedAdv                       0x0000511d   Thumb Code     0  bb_rom_sym_m0.txt ABSOLUTE
    LL_InitExtendedScan                      0x000051b5   Thumb Code     0  bb_rom_sym_m0.txt ABSOLUTE
    LL_InitPeriodicAdv                       0x000051c5   Thumb Code     0  bb_rom_sym_m0.txt ABSOLUTE
    LL_NumEmptyWlEntries                     0x00005291   Thumb Code     0  bb_rom_sym_m0.txt ABSOLUTE
    LL_PLUS_DisableSlaveLatency              0x000052a5   Thumb Code     0  bb_rom_sym_m0.txt ABSOLUTE
    LL_PLUS_EnableSlaveLatency               0x00005435   Thumb Code     0  bb_rom_sym_m0.txt ABSOLUTE
    LL_PLUS_GetAdvDataExtendData             0x0000548d   Thumb Code     0  bb_rom_sym_m0.txt ABSOLUTE
    LL_PLUS_GetScanRequestExtendData         0x00005495   Thumb Code     0  bb_rom_sym_m0.txt ABSOLUTE
    LL_PLUS_GetScanerAddr                    0x000054bd   Thumb Code     0  bb_rom_sym_m0.txt ABSOLUTE
    LL_PLUS_PerStasReadByChn                 0x000054d5   Thumb Code     0  bb_rom_sym_m0.txt ABSOLUTE
    LL_PLUS_PerStatsReset                    0x00005519   Thumb Code     0  bb_rom_sym_m0.txt ABSOLUTE
    LL_PLUS_PerStats_Init                    0x00005535   Thumb Code     0  bb_rom_sym_m0.txt ABSOLUTE
    LL_PLUS_SetAdvDataFilterCB               0x00005545   Thumb Code     0  bb_rom_sym_m0.txt ABSOLUTE
    LL_PLUS_SetScanRequestData               0x00005551   Thumb Code     0  bb_rom_sym_m0.txt ABSOLUTE
    LL_PLUS_SetScanRequestFilterCB           0x00005579   Thumb Code     0  bb_rom_sym_m0.txt ABSOLUTE
    LL_PLUS_SetScanRsqData                   0x00005585   Thumb Code     0  bb_rom_sym_m0.txt ABSOLUTE
    LL_PLUS_SetScanRsqDataByIndex            0x000055b1   Thumb Code     0  bb_rom_sym_m0.txt ABSOLUTE
    LL_PeriodicAdvertisingCreateSync         0x000055bd   Thumb Code     0  bb_rom_sym_m0.txt ABSOLUTE
    LL_PeriodicAdvertisingCreateSyncCancel   0x0000560d   Thumb Code     0  bb_rom_sym_m0.txt ABSOLUTE
    LL_PeriodicAdvertisingTerminateSync      0x00005635   Thumb Code     0  bb_rom_sym_m0.txt ABSOLUTE
    LL_PhyUpdate                             0x00005655   Thumb Code     0  bb_rom_sym_m0.txt ABSOLUTE
    LL_PhyUpdate0                            0x0000566d   Thumb Code     0  bb_rom_sym_m0.txt ABSOLUTE
    LL_PhyUpdateCompleteCback                0x00005725   Thumb Code     0  bb_rom_sym_m0.txt ABSOLUTE
    LL_PrdAdvReportCback                     0x000057c9   Thumb Code     0  bb_rom_sym_m0.txt ABSOLUTE
    LL_PrdAdvSyncEstablishedCback            0x000058b5   Thumb Code     0  bb_rom_sym_m0.txt ABSOLUTE
    LL_PrdAdvSyncLostCback                   0x00005989   Thumb Code     0  bb_rom_sym_m0.txt ABSOLUTE
    LL_ProcessEvent                          0x000059f1   Thumb Code     0  bb_rom_sym_m0.txt ABSOLUTE
    LL_PseudoRand                            0x00005dd9   Thumb Code     0  bb_rom_sym_m0.txt ABSOLUTE
    LL_READ_Anatenna_Info                    0x00005ddd   Thumb Code     0  bb_rom_sym_m0.txt ABSOLUTE
    LL_RX_bm_alloc                           0x00005df1   Thumb Code     0  bb_rom_sym_m0.txt ABSOLUTE
    LL_Rand                                  0x00005e05   Thumb Code     0  bb_rom_sym_m0.txt ABSOLUTE
    LL_RandCback                             0x00005e65   Thumb Code     0  bb_rom_sym_m0.txt ABSOLUTE
    LL_ReadAdvChanTxPower                    0x00005e89   Thumb Code     0  bb_rom_sym_m0.txt ABSOLUTE
    LL_ReadBDADDR                            0x00005eb9   Thumb Code     0  bb_rom_sym_m0.txt ABSOLUTE
    LL_ReadCarrSens                          0x00005edd   Thumb Code     0  bb_rom_sym_m0.txt ABSOLUTE
    LL_ReadChanMap                           0x00005ef9   Thumb Code     0  bb_rom_sym_m0.txt ABSOLUTE
    LL_ReadFoff                              0x00005f31   Thumb Code     0  bb_rom_sym_m0.txt ABSOLUTE
    LL_ReadLocalSupportedFeatures            0x00005f71   Thumb Code     0  bb_rom_sym_m0.txt ABSOLUTE
    LL_ReadLocalVersionInfo                  0x00005f8d   Thumb Code     0  bb_rom_sym_m0.txt ABSOLUTE
    LL_ReadMaximumAdvDataLength              0x00005fa5   Thumb Code     0  bb_rom_sym_m0.txt ABSOLUTE
    LL_ReadNumberOfSupportAdvSet             0x00005fc5   Thumb Code     0  bb_rom_sym_m0.txt ABSOLUTE
    LL_ReadRemoteUsedFeatures                0x00006021   Thumb Code     0  bb_rom_sym_m0.txt ABSOLUTE
    LL_ReadRemoteUsedFeaturesCompleteCback   0x00006061   Thumb Code     0  bb_rom_sym_m0.txt ABSOLUTE
    LL_ReadRemoteVersionInfo                 0x000060d5   Thumb Code     0  bb_rom_sym_m0.txt ABSOLUTE
    LL_ReadRemoteVersionInfoCback            0x00006131   Thumb Code     0  bb_rom_sym_m0.txt ABSOLUTE
    LL_ReadResolvingListSize                 0x000061a9   Thumb Code     0  bb_rom_sym_m0.txt ABSOLUTE
    LL_ReadRssi                              0x000061b1   Thumb Code     0  bb_rom_sym_m0.txt ABSOLUTE
    LL_ReadSupportedStates                   0x000061e5   Thumb Code     0  bb_rom_sym_m0.txt ABSOLUTE
    LL_ReadTxPowerLevel                      0x00006269   Thumb Code     0  bb_rom_sym_m0.txt ABSOLUTE
    LL_ReadWlSize                            0x000062e5   Thumb Code     0  bb_rom_sym_m0.txt ABSOLUTE
    LL_RemoveAdvSet                          0x00006335   Thumb Code     0  bb_rom_sym_m0.txt ABSOLUTE
    LL_RemoveResolvingListDevice             0x000064a5   Thumb Code     0  bb_rom_sym_m0.txt ABSOLUTE
    LL_RemoveWhiteListDevice                 0x00006561   Thumb Code     0  bb_rom_sym_m0.txt ABSOLUTE
    LL_Reset                                 0x000065f1   Thumb Code     0  bb_rom_sym_m0.txt ABSOLUTE
    LL_RxDataCompleteCback                   0x00006791   Thumb Code     0  bb_rom_sym_m0.txt ABSOLUTE
    LL_SetAddressResolutionEnable            0x00006831   Thumb Code     0  bb_rom_sym_m0.txt ABSOLUTE
    LL_SetAdvControl                         0x00006881   Thumb Code     0  bb_rom_sym_m0.txt ABSOLUTE
    LL_SetAdvControl0                        0x00006899   Thumb Code     0  bb_rom_sym_m0.txt ABSOLUTE
    LL_SetAdvData                            0x00006a05   Thumb Code     0  bb_rom_sym_m0.txt ABSOLUTE
    LL_SetAdvParam                           0x00006a6d   Thumb Code     0  bb_rom_sym_m0.txt ABSOLUTE
    LL_SetAdvParam0                          0x00006a9d   Thumb Code     0  bb_rom_sym_m0.txt ABSOLUTE
    LL_SetDataLengh                          0x00006df9   Thumb Code     0  bb_rom_sym_m0.txt ABSOLUTE
    LL_SetDataLengh0                         0x00006e11   Thumb Code     0  bb_rom_sym_m0.txt ABSOLUTE
    LL_SetDefaultPhyMode                     0x00006ead   Thumb Code     0  bb_rom_sym_m0.txt ABSOLUTE
    LL_SetExtAdvData                         0x00006edd   Thumb Code     0  bb_rom_sym_m0.txt ABSOLUTE
    LL_SetExtAdvEnable                       0x00006fc5   Thumb Code     0  bb_rom_sym_m0.txt ABSOLUTE
    LL_SetExtAdvParam                        0x00007205   Thumb Code     0  bb_rom_sym_m0.txt ABSOLUTE
    LL_SetExtAdvSetRandomAddress             0x000073a9   Thumb Code     0  bb_rom_sym_m0.txt ABSOLUTE
    LL_SetExtScanRspData                     0x000073f5   Thumb Code     0  bb_rom_sym_m0.txt ABSOLUTE
    LL_SetExtendedScanEnable                 0x00007471   Thumb Code     0  bb_rom_sym_m0.txt ABSOLUTE
    LL_SetExtendedScanParameters             0x000074b5   Thumb Code     0  bb_rom_sym_m0.txt ABSOLUTE
    LL_SetPeriodicAdvData                    0x0000751d   Thumb Code     0  bb_rom_sym_m0.txt ABSOLUTE
    LL_SetPeriodicAdvEnable                  0x000075cd   Thumb Code     0  bb_rom_sym_m0.txt ABSOLUTE
    LL_SetPeriodicAdvParameter               0x00007715   Thumb Code     0  bb_rom_sym_m0.txt ABSOLUTE
    LL_SetPhyMode                            0x000077e1   Thumb Code     0  bb_rom_sym_m0.txt ABSOLUTE
    LL_SetPhyMode0                           0x000077fd   Thumb Code     0  bb_rom_sym_m0.txt ABSOLUTE
    LL_SetRandomAddress                      0x000078c9   Thumb Code     0  bb_rom_sym_m0.txt ABSOLUTE
    LL_SetResolvablePrivateAddressTimeout    0x00007929   Thumb Code     0  bb_rom_sym_m0.txt ABSOLUTE
    LL_SetScanControl                        0x00007935   Thumb Code     0  bb_rom_sym_m0.txt ABSOLUTE
    LL_SetScanControl0                       0x0000794d   Thumb Code     0  bb_rom_sym_m0.txt ABSOLUTE
    LL_SetScanParam                          0x00007a59   Thumb Code     0  bb_rom_sym_m0.txt ABSOLUTE
    LL_SetScanParam0                         0x00007a75   Thumb Code     0  bb_rom_sym_m0.txt ABSOLUTE
    LL_SetScanRspData                        0x00007b15   Thumb Code     0  bb_rom_sym_m0.txt ABSOLUTE
    LL_SetTxPowerLevel                       0x00007b65   Thumb Code     0  bb_rom_sym_m0.txt ABSOLUTE
    LL_Set_ConnectionCTE_ReceiveParam        0x00007b91   Thumb Code     0  bb_rom_sym_m0.txt ABSOLUTE
    LL_Set_ConnectionCTE_TransmitParam       0x00007c99   Thumb Code     0  bb_rom_sym_m0.txt ABSOLUTE
    LL_StartEncrypt                          0x00007e01   Thumb Code     0  bb_rom_sym_m0.txt ABSOLUTE
    LL_TX_bm_alloc                           0x00007f01   Thumb Code     0  bb_rom_sym_m0.txt ABSOLUTE
    LL_TxData                                0x00007f1d   Thumb Code     0  bb_rom_sym_m0.txt ABSOLUTE
    LL_WriteSuggestedDefaultDataLength       0x00007fb9   Thumb Code     0  bb_rom_sym_m0.txt ABSOLUTE
    LL_evt_schedule                          0x00007ff9   Thumb Code     0  bb_rom_sym_m0.txt ABSOLUTE
    LL_extAdvTimerExpProcess                 0x000080b5   Thumb Code     0  bb_rom_sym_m0.txt ABSOLUTE
    LL_extInitTimerExpProcess                0x000080b9   Thumb Code     0  bb_rom_sym_m0.txt ABSOLUTE
    LL_extScanTimerExpProcess                0x000080bb   Thumb Code     0  bb_rom_sym_m0.txt ABSOLUTE
    LL_master_conn_event                     0x000080bd   Thumb Code     0  bb_rom_sym_m0.txt ABSOLUTE
    LL_prdAdvTimerExpProcess                 0x0000826d   Thumb Code     0  bb_rom_sym_m0.txt ABSOLUTE
    LL_prdScanTimerExpProcess                0x00008271   Thumb Code     0  bb_rom_sym_m0.txt ABSOLUTE
    LL_set_default_conn_params               0x00008275   Thumb Code     0  bb_rom_sym_m0.txt ABSOLUTE
    LL_set_default_conn_params0              0x0000828d   Thumb Code     0  bb_rom_sym_m0.txt ABSOLUTE
    LL_slave_conn_event                      0x000082b9   Thumb Code     0  bb_rom_sym_m0.txt ABSOLUTE
    NMI_Handler                              0x00008481   Thumb Code     0  bb_rom_sym_m0.txt ABSOLUTE
    PendSV_Handler                           0x000084cd   Thumb Code     0  bb_rom_sym_m0.txt ABSOLUTE
    TIM1_IRQHandler                          0x00008545   Thumb Code     0  bb_rom_sym_m0.txt ABSOLUTE
    WaitRTCCount                             0x00008901   Thumb Code     0  bb_rom_sym_m0.txt ABSOLUTE
    __ARM_common_switch8                     0x00008961   Thumb Code     0  bb_rom_sym_m0.txt ABSOLUTE
    _spif_read_status_reg                    0x0000961d   Thumb Code     0  bb_rom_sym_m0.txt ABSOLUTE
    _spif_wait_nobusy                        0x00009645   Thumb Code     0  bb_rom_sym_m0.txt ABSOLUTE
    app_sleep_process                        0x00009769   Thumb Code     0  bb_rom_sym_m0.txt ABSOLUTE
    app_wakeup_process                       0x00009779   Thumb Code     0  bb_rom_sym_m0.txt ABSOLUTE
    ate_fun_test                             0x00009789   Thumb Code     0  bb_rom_sym_m0.txt ABSOLUTE
    ate_sleep_process                        0x00009d11   Thumb Code     0  bb_rom_sym_m0.txt ABSOLUTE
    ate_wakeup_process                       0x0000a121   Thumb Code     0  bb_rom_sym_m0.txt ABSOLUTE
    bit_to_byte                              0x0000a1e9   Thumb Code     0  bb_rom_sym_m0.txt ABSOLUTE
    ble_crc24_gen                            0x0000a201   Thumb Code     0  bb_rom_sym_m0.txt ABSOLUTE
    boot_init                                0x0000a361   Thumb Code     0  bb_rom_sym_m0.txt ABSOLUTE
    boot_init0                               0x0000a379   Thumb Code     0  bb_rom_sym_m0.txt ABSOLUTE
    boot_m0                                  0x0000a3c1   Thumb Code     0  bb_rom_sym_m0.txt ABSOLUTE
    byte_to_bit                              0x0000a535   Thumb Code     0  bb_rom_sym_m0.txt ABSOLUTE
    calculate_whiten_seed                    0x0000a549   Thumb Code     0  bb_rom_sym_m0.txt ABSOLUTE
    clear_timer                              0x0000a5c1   Thumb Code     0  bb_rom_sym_m0.txt ABSOLUTE
    clear_timer_int                          0x0000a5cb   Thumb Code     0  bb_rom_sym_m0.txt ABSOLUTE
    clk_get_pclk                             0x0000a5d1   Thumb Code     0  bb_rom_sym_m0.txt ABSOLUTE
    clk_init                                 0x0000a5ed   Thumb Code     0  bb_rom_sym_m0.txt ABSOLUTE
    clk_set_pclk_div                         0x0000a681   Thumb Code     0  bb_rom_sym_m0.txt ABSOLUTE
    clk_spif_ref_clk                         0x0000a6a1   Thumb Code     0  bb_rom_sym_m0.txt ABSOLUTE
    config_RTC                               0x0000a6f9   Thumb Code     0  bb_rom_sym_m0.txt ABSOLUTE
    config_RTC0                              0x0000a711   Thumb Code     0  bb_rom_sym_m0.txt ABSOLUTE
    rom_crc16                                0x0000a755   Thumb Code     0  bb_rom_sym_m0.txt ABSOLUTE
    debug_print                              0x0000a791   Thumb Code     0  bb_rom_sym_m0.txt ABSOLUTE
    disableSleep                             0x0000a921   Thumb Code     0  bb_rom_sym_m0.txt ABSOLUTE
    drv_disable_irq                          0x0000a975   Thumb Code     0  bb_rom_sym_m0.txt ABSOLUTE
    drv_enable_irq                           0x0000a99d   Thumb Code     0  bb_rom_sym_m0.txt ABSOLUTE
    drv_irq_init                             0x0000a9c9   Thumb Code     0  bb_rom_sym_m0.txt ABSOLUTE
    dwc_connect                              0x0000a9fd   Thumb Code     0  bb_rom_sym_m0.txt ABSOLUTE
    dwc_data_process                         0x0000aa35   Thumb Code     0  bb_rom_sym_m0.txt ABSOLUTE
    dwc_loop                                 0x0000abd1   Thumb Code     0  bb_rom_sym_m0.txt ABSOLUTE
    efuse_read                               0x0000ace1   Thumb Code     0  bb_rom_sym_m0.txt ABSOLUTE
    enableSleep                              0x0000aead   Thumb Code     0  bb_rom_sym_m0.txt ABSOLUTE
    enterSleepProcess                        0x0000aeb9   Thumb Code     0  bb_rom_sym_m0.txt ABSOLUTE
    enterSleepProcess0                       0x0000aed1   Thumb Code     0  bb_rom_sym_m0.txt ABSOLUTE
    enter_sleep_off_mode                     0x0000afa1   Thumb Code     0  bb_rom_sym_m0.txt ABSOLUTE
    enter_sleep_off_mode0                    0x0000afb9   Thumb Code     0  bb_rom_sym_m0.txt ABSOLUTE
    getMcuPrecisionCount                     0x0000afe9   Thumb Code     0  bb_rom_sym_m0.txt ABSOLUTE
    getPN23RandNumber                        0x0000aff5   Thumb Code     0  bb_rom_sym_m0.txt ABSOLUTE
    getRxBufferFree                          0x0000b01d   Thumb Code     0  bb_rom_sym_m0.txt ABSOLUTE
    getRxBufferSize                          0x0000b031   Thumb Code     0  bb_rom_sym_m0.txt ABSOLUTE
    getSleepMode                             0x0000b051   Thumb Code     0  bb_rom_sym_m0.txt ABSOLUTE
    getTxBufferFree                          0x0000b05d   Thumb Code     0  bb_rom_sym_m0.txt ABSOLUTE
    getTxBufferSize                          0x0000b071   Thumb Code     0  bb_rom_sym_m0.txt ABSOLUTE
    get_rx_read_ptr                          0x0000b0b1   Thumb Code     0  bb_rom_sym_m0.txt ABSOLUTE
    get_rx_write_ptr                         0x0000b0b9   Thumb Code     0  bb_rom_sym_m0.txt ABSOLUTE
    get_sleep_flag                           0x0000b0c1   Thumb Code     0  bb_rom_sym_m0.txt ABSOLUTE
    get_timer_count                          0x0000b0cd   Thumb Code     0  bb_rom_sym_m0.txt ABSOLUTE
    get_timer_int                            0x0000b0d1   Thumb Code     0  bb_rom_sym_m0.txt ABSOLUTE
    get_tx_read_ptr                          0x0000b0d9   Thumb Code     0  bb_rom_sym_m0.txt ABSOLUTE
    get_tx_write_ptr                         0x0000b0e1   Thumb Code     0  bb_rom_sym_m0.txt ABSOLUTE
    gpio_cfg_analog_io                       0x0000b0e9   Thumb Code     0  bb_rom_sym_m0.txt ABSOLUTE
    gpio_dir                                 0x0000b119   Thumb Code     0  bb_rom_sym_m0.txt ABSOLUTE
    gpio_fmux_control                        0x0000b15d   Thumb Code     0  bb_rom_sym_m0.txt ABSOLUTE
    gpio_fmux_set                            0x0000b179   Thumb Code     0  bb_rom_sym_m0.txt ABSOLUTE
    gpio_in_trigger                          0x0000b1b1   Thumb Code     0  bb_rom_sym_m0.txt ABSOLUTE
    gpio_init                                0x0000b219   Thumb Code     0  bb_rom_sym_m0.txt ABSOLUTE
    gpio_interrupt_set                       0x0000b22d   Thumb Code     0  bb_rom_sym_m0.txt ABSOLUTE
    gpio_pull_set                            0x0000b249   Thumb Code     0  bb_rom_sym_m0.txt ABSOLUTE
    gpio_read                                0x0000b291   Thumb Code     0  bb_rom_sym_m0.txt ABSOLUTE
    gpio_wakeup_set                          0x0000b2b5   Thumb Code     0  bb_rom_sym_m0.txt ABSOLUTE
    gpio_write                               0x0000b319   Thumb Code     0  bb_rom_sym_m0.txt ABSOLUTE
    hciInitEventMasks                        0x0000b52d   Thumb Code     0  bb_rom_sym_m0.txt ABSOLUTE
    isSleepAllow                             0x0000b555   Thumb Code     0  bb_rom_sym_m0.txt ABSOLUTE
    isTimer1Running                          0x0000b561   Thumb Code     0  bb_rom_sym_m0.txt ABSOLUTE
    isTimer4Running                          0x0000b571   Thumb Code     0  bb_rom_sym_m0.txt ABSOLUTE
    jump_area_init                           0x0000b581   Thumb Code     0  bb_rom_sym_m0.txt ABSOLUTE
    ll24BitTimeCompare                       0x0000b5a9   Thumb Code     0  bb_rom_sym_m0.txt ABSOLUTE
    llAdjSlaveLatencyValue                   0x0000b609   Thumb Code     0  bb_rom_sym_m0.txt ABSOLUTE
    llAllocConnId                            0x0000b629   Thumb Code     0  bb_rom_sym_m0.txt ABSOLUTE
    llAllocateSyncHandle                     0x0000b679   Thumb Code     0  bb_rom_sym_m0.txt ABSOLUTE
    llAtLeastTwoChans                        0x0000b6a9   Thumb Code     0  bb_rom_sym_m0.txt ABSOLUTE
    llCalcMaxScanTime                        0x0000b6ed   Thumb Code     0  bb_rom_sym_m0.txt ABSOLUTE
    llCalcScaFactor                          0x0000b745   Thumb Code     0  bb_rom_sym_m0.txt ABSOLUTE
    llCalcTimerDrift                         0x0000b76d   Thumb Code     0  bb_rom_sym_m0.txt ABSOLUTE
    llCheckForLstoDuringSL                   0x0000b7b1   Thumb Code     0  bb_rom_sym_m0.txt ABSOLUTE
    llCheckWhiteListUsage                    0x0000b7ed   Thumb Code     0  bb_rom_sym_m0.txt ABSOLUTE
    llConnCleanup                            0x0000b809   Thumb Code     0  bb_rom_sym_m0.txt ABSOLUTE
    llConnTerminate                          0x0000b839   Thumb Code     0  bb_rom_sym_m0.txt ABSOLUTE
    llConnTerminate0                         0x0000b851   Thumb Code     0  bb_rom_sym_m0.txt ABSOLUTE
    llConvertCtrlProcTimeoutToEvent          0x0000b87d   Thumb Code     0  bb_rom_sym_m0.txt ABSOLUTE
    llConvertLstoToEvent                     0x0000b899   Thumb Code     0  bb_rom_sym_m0.txt ABSOLUTE
    llDeleteSyncHandle                       0x0000b8bd   Thumb Code     0  bb_rom_sym_m0.txt ABSOLUTE
    llDequeueCtrlPkt                         0x0000b8ed   Thumb Code     0  bb_rom_sym_m0.txt ABSOLUTE
    llDequeueDataQ                           0x0000b929   Thumb Code     0  bb_rom_sym_m0.txt ABSOLUTE
    llEnqueueCtrlPkt                         0x0000b953   Thumb Code     0  bb_rom_sym_m0.txt ABSOLUTE
    llEnqueueDataQ                           0x0000b98b   Thumb Code     0  bb_rom_sym_m0.txt ABSOLUTE
    llEqAlreadyValidAddr                     0x0000b9b1   Thumb Code     0  bb_rom_sym_m0.txt ABSOLUTE
    llEqSynchWord                            0x0000b9b5   Thumb Code     0  bb_rom_sym_m0.txt ABSOLUTE
    llEqualBytes                             0x0000b9c9   Thumb Code     0  bb_rom_sym_m0.txt ABSOLUTE
    llEventDelta                             0x0000b9e9   Thumb Code     0  bb_rom_sym_m0.txt ABSOLUTE
    llEventInRange                           0x0000b9fd   Thumb Code     0  bb_rom_sym_m0.txt ABSOLUTE
    llGenerateCRC                            0x0000ba1b   Thumb Code     0  bb_rom_sym_m0.txt ABSOLUTE
    llGenerateValidAccessAddr                0x0000ba3d   Thumb Code     0  bb_rom_sym_m0.txt ABSOLUTE
    llGetNextAdvChn                          0x0000ba6d   Thumb Code     0  bb_rom_sym_m0.txt ABSOLUTE
    llGetNextAuxAdvChn                       0x0000bac1   Thumb Code     0  bb_rom_sym_m0.txt ABSOLUTE
    llGetNextDataChan                        0x0000bae5   Thumb Code     0  bb_rom_sym_m0.txt ABSOLUTE
    llGetNextDataChanCSA2                    0x0000bb23   Thumb Code     0  bb_rom_sym_m0.txt ABSOLUTE
    llGtSixConsecZerosOrOnes                 0x0000bb81   Thumb Code     0  bb_rom_sym_m0.txt ABSOLUTE
    llGtTwentyFourTransitions                0x0000bbb3   Thumb Code     0  bb_rom_sym_m0.txt ABSOLUTE
    llInitFeatureSet                         0x0000bbe5   Thumb Code     0  bb_rom_sym_m0.txt ABSOLUTE
    llInitFeatureSet2MPHY                    0x0000bc1d   Thumb Code     0  bb_rom_sym_m0.txt ABSOLUTE
    llInitFeatureSetCodedPHY                 0x0000bc45   Thumb Code     0  bb_rom_sym_m0.txt ABSOLUTE
    llInitFeatureSetDLE                      0x0000bc6d   Thumb Code     0  bb_rom_sym_m0.txt ABSOLUTE
    llLtTwoChangesInLastSixBits              0x0000bc89   Thumb Code     0  bb_rom_sym_m0.txt ABSOLUTE
    llMasterEvt_TaskEndOk                    0x0000bcb9   Thumb Code     0  bb_rom_sym_m0.txt ABSOLUTE
    llMemCopyDst                             0x0000be05   Thumb Code     0  bb_rom_sym_m0.txt ABSOLUTE
    llMemCopySrc                             0x0000be1b   Thumb Code     0  bb_rom_sym_m0.txt ABSOLUTE
    llOneBitSynchWordDiffer                  0x0000be35   Thumb Code     0  bb_rom_sym_m0.txt ABSOLUTE
    llPduLengthManagmentReset                0x0000be4d   Thumb Code     0  bb_rom_sym_m0.txt ABSOLUTE
    llPduLengthUpdate                        0x0000bf01   Thumb Code     0  bb_rom_sym_m0.txt ABSOLUTE
    llPendingUpdateParam                     0x0000c00d   Thumb Code     0  bb_rom_sym_m0.txt ABSOLUTE
    llPhyModeCtrlReset                       0x0000c051   Thumb Code     0  bb_rom_sym_m0.txt ABSOLUTE
    llPhyModeCtrlUpdateNotify                0x0000c0b9   Thumb Code     0  bb_rom_sym_m0.txt ABSOLUTE
    llProcessChanMap                         0x0000c185   Thumb Code     0  bb_rom_sym_m0.txt ABSOLUTE
    llProcessMasterControlPacket             0x0000c1d1   Thumb Code     0  bb_rom_sym_m0.txt ABSOLUTE
    llProcessMasterControlProcedures         0x0000c5b9   Thumb Code     0  bb_rom_sym_m0.txt ABSOLUTE
    llProcessRxData                          0x0000ca85   Thumb Code     0  bb_rom_sym_m0.txt ABSOLUTE
    llProcessSlaveControlPacket              0x0000cc31   Thumb Code     0  bb_rom_sym_m0.txt ABSOLUTE
    llProcessSlaveControlProcedures          0x0000d169   Thumb Code     0  bb_rom_sym_m0.txt ABSOLUTE
    llProcessTxData                          0x0000d4d1   Thumb Code     0  bb_rom_sym_m0.txt ABSOLUTE
    llProcessTxData0                         0x0000d4e9   Thumb Code     0  bb_rom_sym_m0.txt ABSOLUTE
    llReleaseAllConnId                       0x0000d55d   Thumb Code     0  bb_rom_sym_m0.txt ABSOLUTE
    llReleaseConnId                          0x0000d561   Thumb Code     0  bb_rom_sym_m0.txt ABSOLUTE
    llReplaceCtrlPkt                         0x0000d5f5   Thumb Code     0  bb_rom_sym_m0.txt ABSOLUTE
    llResetConnId                            0x0000d60d   Thumb Code     0  bb_rom_sym_m0.txt ABSOLUTE
    llResetRfCounters                        0x0000d6ed   Thumb Code     0  bb_rom_sym_m0.txt ABSOLUTE
    llSecAdvAllow                            0x0000d701   Thumb Code     0  bb_rom_sym_m0.txt ABSOLUTE
    llSetNextDataChan                        0x0000d769   Thumb Code     0  bb_rom_sym_m0.txt ABSOLUTE
    llSetNextPhyMode                         0x0000d839   Thumb Code     0  bb_rom_sym_m0.txt ABSOLUTE
    llSetupAdv                               0x0000d8a9   Thumb Code     0  bb_rom_sym_m0.txt ABSOLUTE
    llSetupAdvExtIndPDU                      0x0000d949   Thumb Code     0  bb_rom_sym_m0.txt ABSOLUTE
    llSetupAuxAdvIndPDU                      0x0000db4d   Thumb Code     0  bb_rom_sym_m0.txt ABSOLUTE
    llSetupAuxChainIndPDU                    0x0000dda1   Thumb Code     0  bb_rom_sym_m0.txt ABSOLUTE
    llSetupAuxConnectReqPDU                  0x0000df91   Thumb Code     0  bb_rom_sym_m0.txt ABSOLUTE
    llSetupAuxConnectRspPDU                  0x0000e025   Thumb Code     0  bb_rom_sym_m0.txt ABSOLUTE
    llSetupAuxScanRspPDU                     0x0000e09d   Thumb Code     0  bb_rom_sym_m0.txt ABSOLUTE
    llSetupAuxSyncIndPDU                     0x0000e109   Thumb Code     0  bb_rom_sym_m0.txt ABSOLUTE
    llSetupCTEReq                            0x0000e2c1   Thumb Code     0  bb_rom_sym_m0.txt ABSOLUTE
    llSetupCTERsp                            0x0000e38d   Thumb Code     0  bb_rom_sym_m0.txt ABSOLUTE
    llSetupConn                              0x0000e457   Thumb Code     0  bb_rom_sym_m0.txt ABSOLUTE
    llSetupDataLenghtReq                     0x0000e459   Thumb Code     0  bb_rom_sym_m0.txt ABSOLUTE
    llSetupDataLenghtRsp                     0x0000e4d5   Thumb Code     0  bb_rom_sym_m0.txt ABSOLUTE
    llSetupDirectedAdvEvt                    0x0000e551   Thumb Code     0  bb_rom_sym_m0.txt ABSOLUTE
    llSetupEncReq                            0x0000e6a1   Thumb Code     0  bb_rom_sym_m0.txt ABSOLUTE
    llSetupEncRsp                            0x0000e725   Thumb Code     0  bb_rom_sym_m0.txt ABSOLUTE
    llSetupExtAdvEvent                       0x0000e7b1   Thumb Code     0  bb_rom_sym_m0.txt ABSOLUTE
    llSetupExtInit                           0x0000eb09   Thumb Code     0  bb_rom_sym_m0.txt ABSOLUTE
    llSetupExtScan                           0x0000eb81   Thumb Code     0  bb_rom_sym_m0.txt ABSOLUTE
    llSetupFeatureSetReq                     0x0000ec01   Thumb Code     0  bb_rom_sym_m0.txt ABSOLUTE
    llSetupFeatureSetRsp                     0x0000ec63   Thumb Code     0  bb_rom_sym_m0.txt ABSOLUTE
    llSetupInit                              0x0000ecc1   Thumb Code     0  bb_rom_sym_m0.txt ABSOLUTE
    llSetupNextMasterEvent                   0x0000ed39   Thumb Code     0  bb_rom_sym_m0.txt ABSOLUTE
    llSetupNextSlaveEvent                    0x0000ede1   Thumb Code     0  bb_rom_sym_m0.txt ABSOLUTE
    llSetupNextSlaveEvent0                   0x0000edf9   Thumb Code     0  bb_rom_sym_m0.txt ABSOLUTE
    llSetupNonConnectableAdvEvt              0x0000ef65   Thumb Code     0  bb_rom_sym_m0.txt ABSOLUTE
    llSetupPauseEncReq                       0x0000f075   Thumb Code     0  bb_rom_sym_m0.txt ABSOLUTE
    llSetupPauseEncRsp                       0x0000f0c5   Thumb Code     0  bb_rom_sym_m0.txt ABSOLUTE
    llSetupPhyReq                            0x0000f121   Thumb Code     0  bb_rom_sym_m0.txt ABSOLUTE
    llSetupPhyRsp                            0x0000f177   Thumb Code     0  bb_rom_sym_m0.txt ABSOLUTE
    llSetupPhyUpdateInd                      0x0000f1cd   Thumb Code     0  bb_rom_sym_m0.txt ABSOLUTE
    llSetupPrdAdvEvent                       0x0000f239   Thumb Code     0  bb_rom_sym_m0.txt ABSOLUTE
    llSetupPrdScan                           0x0000f3b9   Thumb Code     0  bb_rom_sym_m0.txt ABSOLUTE
    llSetupRejectExtInd                      0x0000f44d   Thumb Code     0  bb_rom_sym_m0.txt ABSOLUTE
    llSetupRejectInd                         0x0000f479   Thumb Code     0  bb_rom_sym_m0.txt ABSOLUTE
    llSetupScan                              0x0000f4a5   Thumb Code     0  bb_rom_sym_m0.txt ABSOLUTE
    llSetupScanInit                          0x0000f54d   Thumb Code     0  bb_rom_sym_m0.txt ABSOLUTE
    llSetupScannableAdvEvt                   0x0000f55d   Thumb Code     0  bb_rom_sym_m0.txt ABSOLUTE
    llSetupSecAdvEvt                         0x0000f66d   Thumb Code     0  bb_rom_sym_m0.txt ABSOLUTE
    llSetupSecConnectableAdvEvt              0x0000f6e9   Thumb Code     0  bb_rom_sym_m0.txt ABSOLUTE
    llSetupSecInit                           0x0000f7c1   Thumb Code     0  bb_rom_sym_m0.txt ABSOLUTE
    llSetupSecNonConnectableAdvEvt           0x0000f875   Thumb Code     0  bb_rom_sym_m0.txt ABSOLUTE
    llSetupSecScan                           0x0000f94d   Thumb Code     0  bb_rom_sym_m0.txt ABSOLUTE
    llSetupSecScannableAdvEvt                0x0000fa19   Thumb Code     0  bb_rom_sym_m0.txt ABSOLUTE
    llSetupStartEncReq                       0x0000faf1   Thumb Code     0  bb_rom_sym_m0.txt ABSOLUTE
    llSetupSyncInfo                          0x0000fb59   Thumb Code     0  bb_rom_sym_m0.txt ABSOLUTE
    llSetupTermInd                           0x0000fc2d   Thumb Code     0  bb_rom_sym_m0.txt ABSOLUTE
    llSetupUndirectedAdvEvt                  0x0000fc91   Thumb Code     0  bb_rom_sym_m0.txt ABSOLUTE
    llSetupUnknownRsp                        0x0000fda5   Thumb Code     0  bb_rom_sym_m0.txt ABSOLUTE
    llSetupUpdateChanReq                     0x0000fdf9   Thumb Code     0  bb_rom_sym_m0.txt ABSOLUTE
    llSetupUpdateParamReq                    0x0000fe6d   Thumb Code     0  bb_rom_sym_m0.txt ABSOLUTE
    llSetupVersionIndReq                     0x0000ff05   Thumb Code     0  bb_rom_sym_m0.txt ABSOLUTE
    llSlaveEvt_TaskAbort                     0x0000ff79   Thumb Code     0  bb_rom_sym_m0.txt ABSOLUTE
    llSlaveEvt_TaskEndOk                     0x0000ff95   Thumb Code     0  bb_rom_sym_m0.txt ABSOLUTE
    llTrxNumAdaptiveConfig                   0x00010181   Thumb Code     0  bb_rom_sym_m0.txt ABSOLUTE
    llValidAccessAddr                        0x0001019b   Thumb Code     0  bb_rom_sym_m0.txt ABSOLUTE
    llWaitUs                                 0x000101e1   Thumb Code     0  bb_rom_sym_m0.txt ABSOLUTE
    llWriteTxData                            0x00010209   Thumb Code     0  bb_rom_sym_m0.txt ABSOLUTE
    ll_CalcRandomAddr                        0x0001028f   Thumb Code     0  bb_rom_sym_m0.txt ABSOLUTE
    ll_ResolveRandomAddrs                    0x000102cd   Thumb Code     0  bb_rom_sym_m0.txt ABSOLUTE
    ll_addTask                               0x00010315   Thumb Code     0  bb_rom_sym_m0.txt ABSOLUTE
    ll_add_adv_task                          0x00010445   Thumb Code     0  bb_rom_sym_m0.txt ABSOLUTE
    ll_add_adv_task_periodic                 0x00010461   Thumb Code     0  bb_rom_sym_m0.txt ABSOLUTE
    ll_adptive_adj_next_time                 0x0001047d   Thumb Code     0  bb_rom_sym_m0.txt ABSOLUTE
    ll_adptive_smart_window                  0x000104fd   Thumb Code     0  bb_rom_sym_m0.txt ABSOLUTE
    ll_adv_scheduler                         0x000105ad   Thumb Code     0  bb_rom_sym_m0.txt ABSOLUTE
    ll_adv_scheduler_periodic                0x000105c9   Thumb Code     0  bb_rom_sym_m0.txt ABSOLUTE
    ll_allocAuxAdvTimeSlot                   0x000105e5   Thumb Code     0  bb_rom_sym_m0.txt ABSOLUTE
    ll_allocAuxAdvTimeSlot_prd               0x00010679   Thumb Code     0  bb_rom_sym_m0.txt ABSOLUTE
    ll_debug_output                          0x00010719   Thumb Code     0  bb_rom_sym_m0.txt ABSOLUTE
    ll_deleteTask                            0x00010731   Thumb Code     0  bb_rom_sym_m0.txt ABSOLUTE
    ll_delete_adv_task                       0x00010765   Thumb Code     0  bb_rom_sym_m0.txt ABSOLUTE
    ll_delete_adv_task_periodic              0x00010781   Thumb Code     0  bb_rom_sym_m0.txt ABSOLUTE
    ll_ext_adv_schedule_next_event           0x0001079d   Thumb Code     0  bb_rom_sym_m0.txt ABSOLUTE
    ll_ext_init_schedule_next_event          0x000107c1   Thumb Code     0  bb_rom_sym_m0.txt ABSOLUTE
    ll_ext_scan_schedule_next_event          0x000107dd   Thumb Code     0  bb_rom_sym_m0.txt ABSOLUTE
    ll_generateExtAdvDid                     0x000107f9   Thumb Code     0  bb_rom_sym_m0.txt ABSOLUTE
    ll_generateTxBuffer                      0x00010801   Thumb Code     0  bb_rom_sym_m0.txt ABSOLUTE
    ll_getFirstAdvChn                        0x000109c1   Thumb Code     0  bb_rom_sym_m0.txt ABSOLUTE
    ll_getRPAListEntry                       0x000109cd   Thumb Code     0  bb_rom_sym_m0.txt ABSOLUTE
    ll_get_next_active_conn                  0x00010a39   Thumb Code     0  bb_rom_sym_m0.txt ABSOLUTE
    ll_get_next_timer                        0x00010aa1   Thumb Code     0  bb_rom_sym_m0.txt ABSOLUTE
    ll_hw_clr_irq                            0x00010add   Thumb Code     0  bb_rom_sym_m0.txt ABSOLUTE
    ll_hw_config                             0x00010aed   Thumb Code     0  bb_rom_sym_m0.txt ABSOLUTE
    ll_hw_get_anchor                         0x00010b6d   Thumb Code     0  bb_rom_sym_m0.txt ABSOLUTE
    ll_hw_get_fsm_status                     0x00010b79   Thumb Code     0  bb_rom_sym_m0.txt ABSOLUTE
    ll_hw_get_iq_RawSample                   0x00010b89   Thumb Code     0  bb_rom_sym_m0.txt ABSOLUTE
    ll_hw_get_irq_status                     0x00010bbd   Thumb Code     0  bb_rom_sym_m0.txt ABSOLUTE
    ll_hw_get_last_ack                       0x00010bcd   Thumb Code     0  bb_rom_sym_m0.txt ABSOLUTE
    ll_hw_get_loop_cycle                     0x00010be9   Thumb Code     0  bb_rom_sym_m0.txt ABSOLUTE
    ll_hw_get_loop_time                      0x00010bf5   Thumb Code     0  bb_rom_sym_m0.txt ABSOLUTE
    ll_hw_get_nAck                           0x00010c01   Thumb Code     0  bb_rom_sym_m0.txt ABSOLUTE
    ll_hw_get_rfifo_depth                    0x00010c11   Thumb Code     0  bb_rom_sym_m0.txt ABSOLUTE
    ll_hw_get_rfifo_info                     0x00010c25   Thumb Code     0  bb_rom_sym_m0.txt ABSOLUTE
    ll_hw_get_rxPkt_CrcErr_num               0x00010c45   Thumb Code     0  bb_rom_sym_m0.txt ABSOLUTE
    ll_hw_get_rxPkt_CrcOk_num                0x00010c55   Thumb Code     0  bb_rom_sym_m0.txt ABSOLUTE
    ll_hw_get_rxPkt_Total_num                0x00010c69   Thumb Code     0  bb_rom_sym_m0.txt ABSOLUTE
    ll_hw_get_rxPkt_num                      0x00010c79   Thumb Code     0  bb_rom_sym_m0.txt ABSOLUTE
    ll_hw_get_rxPkt_stats                    0x00010c85   Thumb Code     0  bb_rom_sym_m0.txt ABSOLUTE
    ll_hw_get_snNesn                         0x00010c9d   Thumb Code     0  bb_rom_sym_m0.txt ABSOLUTE
    ll_hw_get_tfifo_info                     0x00010cad   Thumb Code     0  bb_rom_sym_m0.txt ABSOLUTE
    ll_hw_get_tfifo_wrptr                    0x00010ccd   Thumb Code     0  bb_rom_sym_m0.txt ABSOLUTE
    ll_hw_get_tr_mode                        0x00010cdd   Thumb Code     0  bb_rom_sym_m0.txt ABSOLUTE
    ll_hw_get_txAck                          0x00010ced   Thumb Code     0  bb_rom_sym_m0.txt ABSOLUTE
    ll_hw_go                                 0x00010cf9   Thumb Code     0  bb_rom_sym_m0.txt ABSOLUTE
    ll_hw_ign_rfifo                          0x00010df9   Thumb Code     0  bb_rom_sym_m0.txt ABSOLUTE
    ll_hw_process_RTO                        0x00010e05   Thumb Code     0  bb_rom_sym_m0.txt ABSOLUTE
    ll_hw_read_rfifo                         0x00010e6d   Thumb Code     0  bb_rom_sym_m0.txt ABSOLUTE
    ll_hw_read_rfifo_pplus                   0x00010ee9   Thumb Code     0  bb_rom_sym_m0.txt ABSOLUTE
    ll_hw_read_rfifo_zb                      0x00010f51   Thumb Code     0  bb_rom_sym_m0.txt ABSOLUTE
    ll_hw_read_tfifo_packet                  0x00010fad   Thumb Code     0  bb_rom_sym_m0.txt ABSOLUTE
    ll_hw_read_tfifo_rtlp                    0x00010ff5   Thumb Code     0  bb_rom_sym_m0.txt ABSOLUTE
    ll_hw_rst_rfifo                          0x000110b1   Thumb Code     0  bb_rom_sym_m0.txt ABSOLUTE
    ll_hw_rst_tfifo                          0x000110e9   Thumb Code     0  bb_rom_sym_m0.txt ABSOLUTE
    ll_hw_set_ant_pattern                    0x000110f5   Thumb Code     0  bb_rom_sym_m0.txt ABSOLUTE
    ll_hw_set_ant_switch_mode                0x00011101   Thumb Code     0  bb_rom_sym_m0.txt ABSOLUTE
    ll_hw_set_ant_switch_timing              0x00011115   Thumb Code     0  bb_rom_sym_m0.txt ABSOLUTE
    ll_hw_set_crc_fmt                        0x0001112d   Thumb Code     0  bb_rom_sym_m0.txt ABSOLUTE
    ll_hw_set_cte_rxSupp                     0x0001113d   Thumb Code     0  bb_rom_sym_m0.txt ABSOLUTE
    ll_hw_set_cte_txSupp                     0x00011155   Thumb Code     0  bb_rom_sym_m0.txt ABSOLUTE
    ll_hw_set_empty_head                     0x00011169   Thumb Code     0  bb_rom_sym_m0.txt ABSOLUTE
    ll_hw_set_irq                            0x00011175   Thumb Code     0  bb_rom_sym_m0.txt ABSOLUTE
    ll_hw_set_loop_nack_num                  0x00011181   Thumb Code     0  bb_rom_sym_m0.txt ABSOLUTE
    ll_hw_set_loop_timeout                   0x0001118d   Thumb Code     0  bb_rom_sym_m0.txt ABSOLUTE
    ll_hw_set_pplus_pktfmt                   0x000111a1   Thumb Code     0  bb_rom_sym_m0.txt ABSOLUTE
    ll_hw_set_rtlp                           0x000111cd   Thumb Code     0  bb_rom_sym_m0.txt ABSOLUTE
    ll_hw_set_rtlp_1st                       0x0001121d   Thumb Code     0  bb_rom_sym_m0.txt ABSOLUTE
    ll_hw_set_rtx                            0x00011265   Thumb Code     0  bb_rom_sym_m0.txt ABSOLUTE
    ll_hw_set_rx_timeout                     0x00011279   Thumb Code     0  bb_rom_sym_m0.txt ABSOLUTE
    ll_hw_set_rx_timeout_1st                 0x00011285   Thumb Code     0  bb_rom_sym_m0.txt ABSOLUTE
    ll_hw_set_rx_tx_interval                 0x00011291   Thumb Code     0  bb_rom_sym_m0.txt ABSOLUTE
    ll_hw_set_srx                            0x000112a5   Thumb Code     0  bb_rom_sym_m0.txt ABSOLUTE
    ll_hw_set_stx                            0x000112b9   Thumb Code     0  bb_rom_sym_m0.txt ABSOLUTE
    ll_hw_set_tfifo_space                    0x000112cd   Thumb Code     0  bb_rom_sym_m0.txt ABSOLUTE
    ll_hw_set_timing                         0x000112e5   Thumb Code     0  bb_rom_sym_m0.txt ABSOLUTE
    ll_hw_set_trlp                           0x00011381   Thumb Code     0  bb_rom_sym_m0.txt ABSOLUTE
    ll_hw_set_trx                            0x000113c9   Thumb Code     0  bb_rom_sym_m0.txt ABSOLUTE
    ll_hw_set_trx_settle                     0x000113dd   Thumb Code     0  bb_rom_sym_m0.txt ABSOLUTE
    ll_hw_set_tx_rx_interval                 0x000113f1   Thumb Code     0  bb_rom_sym_m0.txt ABSOLUTE
    ll_hw_set_tx_rx_release                  0x00011405   Thumb Code     0  bb_rom_sym_m0.txt ABSOLUTE
    ll_hw_trigger                            0x00011421   Thumb Code     0  bb_rom_sym_m0.txt ABSOLUTE
    ll_hw_trx_settle_config                  0x00011445   Thumb Code     0  bb_rom_sym_m0.txt ABSOLUTE
    ll_hw_tx2rx_timing_config                0x00011489   Thumb Code     0  bb_rom_sym_m0.txt ABSOLUTE
    ll_hw_update                             0x000114dd   Thumb Code     0  bb_rom_sym_m0.txt ABSOLUTE
    ll_hw_update_rtlp_mode                   0x00011539   Thumb Code     0  bb_rom_sym_m0.txt ABSOLUTE
    ll_hw_update_trlp_mode                   0x00011579   Thumb Code     0  bb_rom_sym_m0.txt ABSOLUTE
    ll_hw_write_tfifo                        0x000115c1   Thumb Code     0  bb_rom_sym_m0.txt ABSOLUTE
    ll_isAddrInWhiteList                     0x00011649   Thumb Code     0  bb_rom_sym_m0.txt ABSOLUTE
    ll_isFirstAdvChn                         0x000116a9   Thumb Code     0  bb_rom_sym_m0.txt ABSOLUTE
    ll_isIrkAllZero                          0x000116c7   Thumb Code     0  bb_rom_sym_m0.txt ABSOLUTE
    ll_isLegacyAdv                           0x000116dd   Thumb Code     0  bb_rom_sym_m0.txt ABSOLUTE
    ll_parseExtHeader                        0x000116ed   Thumb Code     0  bb_rom_sym_m0.txt ABSOLUTE
    ll_prd_adv_schedule_next_event           0x000117a9   Thumb Code     0  bb_rom_sym_m0.txt ABSOLUTE
    ll_prd_scan_schedule_next_event          0x000117cd   Thumb Code     0  bb_rom_sym_m0.txt ABSOLUTE
    ll_processBasicIRQ                       0x000117e9   Thumb Code     0  bb_rom_sym_m0.txt ABSOLUTE
    ll_processExtAdvIRQ                      0x00013401   Thumb Code     0  bb_rom_sym_m0.txt ABSOLUTE
    ll_processExtInitIRQ                     0x00013405   Thumb Code     0  bb_rom_sym_m0.txt ABSOLUTE
    ll_processExtScanIRQ                     0x00013409   Thumb Code     0  bb_rom_sym_m0.txt ABSOLUTE
    ll_processMissMasterEvt                  0x0001340d   Thumb Code     0  bb_rom_sym_m0.txt ABSOLUTE
    ll_processMissSlaveEvt                   0x000134ed   Thumb Code     0  bb_rom_sym_m0.txt ABSOLUTE
    ll_processPrdAdvIRQ                      0x000135f5   Thumb Code     0  bb_rom_sym_m0.txt ABSOLUTE
    ll_processPrdScanIRQ                     0x000135f9   Thumb Code     0  bb_rom_sym_m0.txt ABSOLUTE
    ll_readLocalIRK                          0x000135fd   Thumb Code     0  bb_rom_sym_m0.txt ABSOLUTE
    ll_read_rxfifo                           0x000136c5   Thumb Code     0  bb_rom_sym_m0.txt ABSOLUTE
    ll_schedule_next_event                   0x00013761   Thumb Code     0  bb_rom_sym_m0.txt ABSOLUTE
    ll_scheduler                             0x00013771   Thumb Code     0  bb_rom_sym_m0.txt ABSOLUTE
    ll_scheduler0                            0x00013789   Thumb Code     0  bb_rom_sym_m0.txt ABSOLUTE
    ll_updateAuxAdvTimeSlot                  0x00013a11   Thumb Code     0  bb_rom_sym_m0.txt ABSOLUTE
    ll_updateExtAdvRemainderTime             0x00013a39   Thumb Code     0  bb_rom_sym_m0.txt ABSOLUTE
    log_clr_putc                             0x00013ab9   Thumb Code     0  bb_rom_sym_m0.txt ABSOLUTE
    log_debug_level                          0x00013ac5   Thumb Code     0  bb_rom_sym_m0.txt ABSOLUTE
    log_get_debug_level                      0x00013ad9   Thumb Code     0  bb_rom_sym_m0.txt ABSOLUTE
    log_printf                               0x00013ae5   Thumb Code     0  bb_rom_sym_m0.txt ABSOLUTE
    log_set_putc                             0x00013b05   Thumb Code     0  bb_rom_sym_m0.txt ABSOLUTE
    log_vsprintf                             0x00013b11   Thumb Code     0  bb_rom_sym_m0.txt ABSOLUTE
    move_to_master_function                  0x00013f09   Thumb Code     0  bb_rom_sym_m0.txt ABSOLUTE
    move_to_slave_function                   0x0001406d   Thumb Code     0  bb_rom_sym_m0.txt ABSOLUTE
    osalAddTimer                             0x00014439   Thumb Code     0  bb_rom_sym_m0.txt ABSOLUTE
    osalDeleteTimer                          0x000144a9   Thumb Code     0  bb_rom_sym_m0.txt ABSOLUTE
    osalFindTimer                            0x000144b5   Thumb Code     0  bb_rom_sym_m0.txt ABSOLUTE
    osalTimeUpdate                           0x000144d5   Thumb Code     0  bb_rom_sym_m0.txt ABSOLUTE
    osalTimeUpdate1                          0x00014541   Thumb Code     0  bb_rom_sym_m0.txt ABSOLUTE
    osalTimerInit                            0x0001457d   Thumb Code     0  bb_rom_sym_m0.txt ABSOLUTE
    osalTimerUpdate                          0x00014589   Thumb Code     0  bb_rom_sym_m0.txt ABSOLUTE
    osal_CbTimerInit                         0x00014621   Thumb Code     0  bb_rom_sym_m0.txt ABSOLUTE
    osal_CbTimerProcessEvent                 0x00014641   Thumb Code     0  bb_rom_sym_m0.txt ABSOLUTE
    osal_CbTimerStart                        0x000146a9   Thumb Code     0  bb_rom_sym_m0.txt ABSOLUTE
    osal_CbTimerStop                         0x00014711   Thumb Code     0  bb_rom_sym_m0.txt ABSOLUTE
    osal_CbTimerUpdate                       0x00014751   Thumb Code     0  bb_rom_sym_m0.txt ABSOLUTE
    osal_ConvertUTCSecs                      0x000147a1   Thumb Code     0  bb_rom_sym_m0.txt ABSOLUTE
    osal_ConvertUTCTime                      0x00014841   Thumb Code     0  bb_rom_sym_m0.txt ABSOLUTE
    osal_GetSystemClock                      0x00014949   Thumb Code     0  bb_rom_sym_m0.txt ABSOLUTE
    osal_bm_adjust_header                    0x00014955   Thumb Code     0  bb_rom_sym_m0.txt ABSOLUTE
    osal_bm_adjust_tail                      0x0001497d   Thumb Code     0  bb_rom_sym_m0.txt ABSOLUTE
    osal_bm_alloc                            0x000149a9   Thumb Code     0  bb_rom_sym_m0.txt ABSOLUTE
    osal_bm_free                             0x000149d9   Thumb Code     0  bb_rom_sym_m0.txt ABSOLUTE
    osal_buffer_uint24                       0x00014a21   Thumb Code     0  bb_rom_sym_m0.txt ABSOLUTE
    osal_buffer_uint32                       0x00014a2f   Thumb Code     0  bb_rom_sym_m0.txt ABSOLUTE
    osal_build_uint16                        0x00014a41   Thumb Code     0  bb_rom_sym_m0.txt ABSOLUTE
    osal_build_uint32                        0x00014a4d   Thumb Code     0  bb_rom_sym_m0.txt ABSOLUTE
    osal_clear_event                         0x00014a89   Thumb Code     0  bb_rom_sym_m0.txt ABSOLUTE
    osal_getClock                            0x00014abd   Thumb Code     0  bb_rom_sym_m0.txt ABSOLUTE
    osal_get_timeoutEx                       0x00014ac9   Thumb Code     0  bb_rom_sym_m0.txt ABSOLUTE
    osal_init_system                         0x00014aed   Thumb Code     0  bb_rom_sym_m0.txt ABSOLUTE
    osal_isbufset                            0x00014b1d   Thumb Code     0  bb_rom_sym_m0.txt ABSOLUTE
    osal_mem_alloc                           0x00014b3d   Thumb Code     0  bb_rom_sym_m0.txt ABSOLUTE
    osal_mem_free                            0x00014c01   Thumb Code     0  bb_rom_sym_m0.txt ABSOLUTE
    osal_mem_init                            0x00014c25   Thumb Code     0  bb_rom_sym_m0.txt ABSOLUTE
    osal_mem_kick                            0x00014c8d   Thumb Code     0  bb_rom_sym_m0.txt ABSOLUTE
    osal_mem_set_heap                        0x00014cb5   Thumb Code     0  bb_rom_sym_m0.txt ABSOLUTE
    osal_memcmp                              0x00014ccd   Thumb Code     0  bb_rom_sym_m0.txt ABSOLUTE
    osal_memcpy                              0x00014ce9   Thumb Code     0  bb_rom_sym_m0.txt ABSOLUTE
    osal_memdup                              0x00014cf9   Thumb Code     0  bb_rom_sym_m0.txt ABSOLUTE
    osal_memset                              0x00014d15   Thumb Code     0  bb_rom_sym_m0.txt ABSOLUTE
    osal_msg_allocate                        0x00014d1d   Thumb Code     0  bb_rom_sym_m0.txt ABSOLUTE
    osal_msg_deallocate                      0x00014d43   Thumb Code     0  bb_rom_sym_m0.txt ABSOLUTE
    osal_msg_dequeue                         0x00014d65   Thumb Code     0  bb_rom_sym_m0.txt ABSOLUTE
    osal_msg_enqueue                         0x00014d91   Thumb Code     0  bb_rom_sym_m0.txt ABSOLUTE
    osal_msg_enqueue_max                     0x00014dc3   Thumb Code     0  bb_rom_sym_m0.txt ABSOLUTE
    osal_msg_extract                         0x00014e6d   Thumb Code     0  bb_rom_sym_m0.txt ABSOLUTE
    osal_msg_find                            0x00014e9d   Thumb Code     0  bb_rom_sym_m0.txt ABSOLUTE
    osal_msg_push                            0x00014ed1   Thumb Code     0  bb_rom_sym_m0.txt ABSOLUTE
    osal_msg_push_front                      0x00014eeb   Thumb Code     0  bb_rom_sym_m0.txt ABSOLUTE
    osal_msg_receive                         0x00014ef5   Thumb Code     0  bb_rom_sym_m0.txt ABSOLUTE
    osal_msg_send                            0x00014f59   Thumb Code     0  bb_rom_sym_m0.txt ABSOLUTE
    osal_next_timeout                        0x00014f7d   Thumb Code     0  bb_rom_sym_m0.txt ABSOLUTE
    osal_pwrmgr_device                       0x00014fa5   Thumb Code     0  bb_rom_sym_m0.txt ABSOLUTE
    osal_pwrmgr_init                         0x00014fb1   Thumb Code     0  bb_rom_sym_m0.txt ABSOLUTE
    osal_pwrmgr_powerconserve                0x00014fc1   Thumb Code     0  bb_rom_sym_m0.txt ABSOLUTE
    osal_pwrmgr_powerconserve0               0x00014fd9   Thumb Code     0  bb_rom_sym_m0.txt ABSOLUTE
    osal_pwrmgr_task_state                   0x000150f9   Thumb Code     0  bb_rom_sym_m0.txt ABSOLUTE
    osal_rand                                0x00015129   Thumb Code     0  bb_rom_sym_m0.txt ABSOLUTE
    osal_revmemcpy                           0x00015145   Thumb Code     0  bb_rom_sym_m0.txt ABSOLUTE
    osal_run_system                          0x00015159   Thumb Code     0  bb_rom_sym_m0.txt ABSOLUTE
    osal_self                                0x000151f5   Thumb Code     0  bb_rom_sym_m0.txt ABSOLUTE
    osal_setClock                            0x00015201   Thumb Code     0  bb_rom_sym_m0.txt ABSOLUTE
    osal_set_event                           0x0001520d   Thumb Code     0  bb_rom_sym_m0.txt ABSOLUTE
    osal_start_reload_timer                  0x00015259   Thumb Code     0  bb_rom_sym_m0.txt ABSOLUTE
    osal_start_system                        0x00015285   Thumb Code     0  bb_rom_sym_m0.txt ABSOLUTE
    osal_start_timerEx                       0x0001528b   Thumb Code     0  bb_rom_sym_m0.txt ABSOLUTE
    osal_stop_timerEx                        0x000152b3   Thumb Code     0  bb_rom_sym_m0.txt ABSOLUTE
    osal_strlen                              0x000152dd   Thumb Code     0  bb_rom_sym_m0.txt ABSOLUTE
    osal_timer_num_active                    0x000152e5   Thumb Code     0  bb_rom_sym_m0.txt ABSOLUTE
    phy_sec_app_key                          0x00015315   Thumb Code     0  bb_rom_sym_m0.txt ABSOLUTE
    phy_sec_decrypt                          0x0001531d   Thumb Code     0  bb_rom_sym_m0.txt ABSOLUTE
    phy_sec_efuse_lock                       0x0001532d   Thumb Code     0  bb_rom_sym_m0.txt ABSOLUTE
    phy_sec_encrypt                          0x00015339   Thumb Code     0  bb_rom_sym_m0.txt ABSOLUTE
    phy_sec_init                             0x00015349   Thumb Code     0  bb_rom_sym_m0.txt ABSOLUTE
    phy_sec_key_valid                        0x0001540d   Thumb Code     0  bb_rom_sym_m0.txt ABSOLUTE
    prog_process_data                        0x00015b19   Thumb Code     0  bb_rom_sym_m0.txt ABSOLUTE
    prog_uart_command                        0x00015c51   Thumb Code     0  bb_rom_sym_m0.txt ABSOLUTE
    prog_uart_fct_command                    0x00015c71   Thumb Code     0  bb_rom_sym_m0.txt ABSOLUTE
    prog_uart_handle                         0x00015c8d   Thumb Code     0  bb_rom_sym_m0.txt ABSOLUTE
    read_LL_remainder_time                   0x00015cbd   Thumb Code     0  bb_rom_sym_m0.txt ABSOLUTE
    read_current_fine_time                   0x00015cc9   Thumb Code     0  bb_rom_sym_m0.txt ABSOLUTE
    read_ll_adv_remainder_time               0x00015cf1   Thumb Code     0  bb_rom_sym_m0.txt ABSOLUTE
    reset_conn_buf                           0x00015cfd   Thumb Code     0  bb_rom_sym_m0.txt ABSOLUTE
    rom_board_init                           0x00016a09   Thumb Code     0  bb_rom_sym_m0.txt ABSOLUTE
    rtc_clear                                0x00016ab5   Thumb Code     0  bb_rom_sym_m0.txt ABSOLUTE
    rtc_config_prescale                      0x00016ad1   Thumb Code     0  bb_rom_sym_m0.txt ABSOLUTE
    rtc_get_counter                          0x00016b15   Thumb Code     0  bb_rom_sym_m0.txt ABSOLUTE
    rtc_start                                0x00016b25   Thumb Code     0  bb_rom_sym_m0.txt ABSOLUTE
    rtc_stop                                 0x00016b35   Thumb Code     0  bb_rom_sym_m0.txt ABSOLUTE
    setSleepMode                             0x00016b45   Thumb Code     0  bb_rom_sym_m0.txt ABSOLUTE
    set_access_address                       0x00016b51   Thumb Code     0  bb_rom_sym_m0.txt ABSOLUTE
    set_channel                              0x00016b5d   Thumb Code     0  bb_rom_sym_m0.txt ABSOLUTE
    set_crc_seed                             0x00016b9d   Thumb Code     0  bb_rom_sym_m0.txt ABSOLUTE
    set_gpio_pull_down_ate                   0x00016bb5   Thumb Code     0  bb_rom_sym_m0.txt ABSOLUTE
    set_gpio_pull_up_ate                     0x00016bcb   Thumb Code     0  bb_rom_sym_m0.txt ABSOLUTE
    set_int                                  0x00016be1   Thumb Code     0  bb_rom_sym_m0.txt ABSOLUTE
    set_max_length                           0x00016bed   Thumb Code     0  bb_rom_sym_m0.txt ABSOLUTE
    set_sleep_flag                           0x00016c01   Thumb Code     0  bb_rom_sym_m0.txt ABSOLUTE
    set_timer                                0x00016c2d   Thumb Code     0  bb_rom_sym_m0.txt ABSOLUTE
    set_whiten_seed                          0x00016cc9   Thumb Code     0  bb_rom_sym_m0.txt ABSOLUTE
    spif_cmd                                 0x00016d49   Thumb Code     0  bb_rom_sym_m0.txt ABSOLUTE
    spif_config                              0x00016dc5   Thumb Code     0  bb_rom_sym_m0.txt ABSOLUTE
    spif_erase_all                           0x00016ea1   Thumb Code     0  bb_rom_sym_m0.txt ABSOLUTE
    spif_erase_block64                       0x00016ed1   Thumb Code     0  bb_rom_sym_m0.txt ABSOLUTE
    spif_erase_chip                          0x00016f55   Thumb Code     0  bb_rom_sym_m0.txt ABSOLUTE
    spif_erase_sector                        0x00016fa9   Thumb Code     0  bb_rom_sym_m0.txt ABSOLUTE
    spif_flash_size                          0x00017029   Thumb Code     0  bb_rom_sym_m0.txt ABSOLUTE
    spif_flash_status_reg_0                  0x0001703d   Thumb Code     0  bb_rom_sym_m0.txt ABSOLUTE
    spif_flash_status_reg_1                  0x00017047   Thumb Code     0  bb_rom_sym_m0.txt ABSOLUTE
    spif_init                                0x00017051   Thumb Code     0  bb_rom_sym_m0.txt ABSOLUTE
    spif_rddata                              0x0001713d   Thumb Code     0  bb_rom_sym_m0.txt ABSOLUTE
    spif_read                                0x00017165   Thumb Code     0  bb_rom_sym_m0.txt ABSOLUTE
    spif_release_deep_sleep                  0x000172cd   Thumb Code     0  bb_rom_sym_m0.txt ABSOLUTE
    spif_set_deep_sleep                      0x00017349   Thumb Code     0  bb_rom_sym_m0.txt ABSOLUTE
    spif_wrdata                              0x0001736d   Thumb Code     0  bb_rom_sym_m0.txt ABSOLUTE
    spif_write                               0x00017395   Thumb Code     0  bb_rom_sym_m0.txt ABSOLUTE
    spif_write_dma                           0x0001744d   Thumb Code     0  bb_rom_sym_m0.txt ABSOLUTE
    spif_write_protect                       0x000174f9   Thumb Code     0  bb_rom_sym_m0.txt ABSOLUTE
    sram_ret_patch                           0x00017591   Thumb Code     0  bb_rom_sym_m0.txt ABSOLUTE
    update_rx_read_ptr                       0x00017609   Thumb Code     0  bb_rom_sym_m0.txt ABSOLUTE
    update_rx_write_ptr                      0x00017635   Thumb Code     0  bb_rom_sym_m0.txt ABSOLUTE
    update_tx_read_ptr                       0x00017659   Thumb Code     0  bb_rom_sym_m0.txt ABSOLUTE
    update_tx_write_ptr                      0x00017685   Thumb Code     0  bb_rom_sym_m0.txt ABSOLUTE
    wakeupProcess                            0x000176a9   Thumb Code     0  bb_rom_sym_m0.txt ABSOLUTE
    wakeupProcess0                           0x000176c5   Thumb Code     0  bb_rom_sym_m0.txt ABSOLUTE
    wakeup_init                              0x000178a5   Thumb Code     0  bb_rom_sym_m0.txt ABSOLUTE
    wakeup_init0                             0x000178bd   Thumb Code     0  bb_rom_sym_m0.txt ABSOLUTE
    zigbee_crc16_gen                         0x0001798d   Thumb Code     0  bb_rom_sym_m0.txt ABSOLUTE
    supportedCmdsTable                       0x00017c00   Data           0  bb_rom_sym_m0.txt ABSOLUTE
    hciCmdTable                              0x00017c44   Data           0  bb_rom_sym_m0.txt ABSOLUTE
    SCA                                      0x00017c4c   Data           0  bb_rom_sym_m0.txt ABSOLUTE
    jump_table_base                          0x1fff0000   Data        1024  jump_table.o(jump_table_mem_area)
    global_config                            0x1fff0400   Data        1024  jump_table.o(global_config_area)
    hclk_per_us                              0x1fff0818   Data           0  bb_rom_sym_m0.txt ABSOLUTE
    hclk_per_us_shift                        0x1fff081c   Data           0  bb_rom_sym_m0.txt ABSOLUTE
    s_prog_time_save                         0x1fff0828   Data           0  bb_rom_sym_m0.txt ABSOLUTE
    s_prog_timeout                           0x1fff082c   Data           0  bb_rom_sym_m0.txt ABSOLUTE
    DFL_ENTRY_BASE                           0x1fff0830   Data           0  bb_rom_sym_m0.txt ABSOLUTE
    receive_timeout_flag                     0x1fff0850   Data           0  bb_rom_sym_m0.txt ABSOLUTE
    osal_sys_tick                            0x1fff0860   Data           0  bb_rom_sym_m0.txt ABSOLUTE
    g_timer4_irq_pending_time                0x1fff0864   Data           0  bb_rom_sym_m0.txt ABSOLUTE
    g_hclk                                   0x1fff0874   Data           0  bb_rom_sym_m0.txt ABSOLUTE
    m_in_critical_region                     0x1fff0878   Data           0  bb_rom_sym_m0.txt ABSOLUTE
    s_rom_debug_level                        0x1fff0888   Data           0  bb_rom_sym_m0.txt ABSOLUTE
    s_spif_ctx                               0x1fff0894   Data           0  bb_rom_sym_m0.txt ABSOLUTE
    osal_qHead                               0x1fff08b8   Data           0  bb_rom_sym_m0.txt ABSOLUTE
    baseTaskID                               0x1fff08c0   Data           0  bb_rom_sym_m0.txt ABSOLUTE
    OSAL_timeSeconds                         0x1fff08cc   Data           0  bb_rom_sym_m0.txt ABSOLUTE
    ll_remain_time                           0x1fff08e4   Data           0  bb_rom_sym_m0.txt ABSOLUTE
    pwrmgr_attribute                         0x1fff08e8   Data           0  bb_rom_sym_m0.txt ABSOLUTE
    timerHead                                0x1fff08f0   Data           0  bb_rom_sym_m0.txt ABSOLUTE
    hciPTMenabled                            0x1fff08f8   Data           0  bb_rom_sym_m0.txt ABSOLUTE
    ctrlToHostEnable                         0x1fff08f9   Data           0  bb_rom_sym_m0.txt ABSOLUTE
    numHostBufs                              0x1fff08fa   Data           0  bb_rom_sym_m0.txt ABSOLUTE
    hciCtrlCmdToken                          0x1fff08fc   Data           0  bb_rom_sym_m0.txt ABSOLUTE
    bleEvtMask                               0x1fff0900   Data           0  bb_rom_sym_m0.txt ABSOLUTE
    pHciEvtMask                              0x1fff0904   Data           0  bb_rom_sym_m0.txt ABSOLUTE
    hciTaskID                                0x1fff090c   Data           0  bb_rom_sym_m0.txt ABSOLUTE
    hciTestTaskID                            0x1fff090d   Data           0  bb_rom_sym_m0.txt ABSOLUTE
    hciGapTaskID                             0x1fff090e   Data           0  bb_rom_sym_m0.txt ABSOLUTE
    hciL2capTaskID                           0x1fff090f   Data           0  bb_rom_sym_m0.txt ABSOLUTE
    hciSmpTaskID                             0x1fff0910   Data           0  bb_rom_sym_m0.txt ABSOLUTE
    hciExtTaskID                             0x1fff0911   Data           0  bb_rom_sym_m0.txt ABSOLUTE
    g_maxConnNum                             0x1fff0914   Data           0  bb_rom_sym_m0.txt ABSOLUTE
    g_maxPktPerEventTx                       0x1fff0915   Data           0  bb_rom_sym_m0.txt ABSOLUTE
    g_maxPktPerEventRx                       0x1fff0916   Data           0  bb_rom_sym_m0.txt ABSOLUTE
    g_blePktVersion                          0x1fff0917   Data           0  bb_rom_sym_m0.txt ABSOLUTE
    g_llRlEnable                             0x1fff0918   Data           0  bb_rom_sym_m0.txt ABSOLUTE
    g_llScanMode                             0x1fff0919   Data           0  bb_rom_sym_m0.txt ABSOLUTE
    g_llAdvMode                              0x1fff091a   Data           0  bb_rom_sym_m0.txt ABSOLUTE
    LL_TaskID                                0x1fff091b   Data           0  bb_rom_sym_m0.txt ABSOLUTE
    llState                                  0x1fff091c   Data           0  bb_rom_sym_m0.txt ABSOLUTE
    numComplPkts                             0x1fff091d   Data           0  bb_rom_sym_m0.txt ABSOLUTE
    numComplPktsLimit                        0x1fff091e   Data           0  bb_rom_sym_m0.txt ABSOLUTE
    fastTxRespTime                           0x1fff091f   Data           0  bb_rom_sym_m0.txt ABSOLUTE
    g_llWlDeviceNum                          0x1fff0920   Data           0  bb_rom_sym_m0.txt ABSOLUTE
    g_llRlDeviceNum                          0x1fff0921   Data           0  bb_rom_sym_m0.txt ABSOLUTE
    rxFifoFlowCtrl                           0x1fff0922   Data           0  bb_rom_sym_m0.txt ABSOLUTE
    llSecondaryState                         0x1fff0923   Data           0  bb_rom_sym_m0.txt ABSOLUTE
    g_extAdvNumber                           0x1fff0924   Data           0  bb_rom_sym_m0.txt ABSOLUTE
    g_perioAdvNumber                         0x1fff0925   Data           0  bb_rom_sym_m0.txt ABSOLUTE
    g_schExtAdvNum                           0x1fff0926   Data           0  bb_rom_sym_m0.txt ABSOLUTE
    g_currentExtAdv                          0x1fff0927   Data           0  bb_rom_sym_m0.txt ABSOLUTE
    g_schExtAdvNum_periodic                  0x1fff0928   Data           0  bb_rom_sym_m0.txt ABSOLUTE
    g_currentExtAdv_periodic                 0x1fff0929   Data           0  bb_rom_sym_m0.txt ABSOLUTE
    g_llRlTimeout                            0x1fff092c   Data           0  bb_rom_sym_m0.txt ABSOLUTE
    g_advSetMaximumLen                       0x1fff0930   Data           0  bb_rom_sym_m0.txt ABSOLUTE
    conn_param                               0x1fff0934   Data           0  bb_rom_sym_m0.txt ABSOLUTE
    g_pExtendedAdvInfo                       0x1fff0938   Data           0  bb_rom_sym_m0.txt ABSOLUTE
    g_pPeriodicAdvInfo                       0x1fff093c   Data           0  bb_rom_sym_m0.txt ABSOLUTE
    g_pLLcteISample                          0x1fff0940   Data           0  bb_rom_sym_m0.txt ABSOLUTE
    g_pLLcteQSample                          0x1fff0944   Data           0  bb_rom_sym_m0.txt ABSOLUTE
    g_llHdcDirAdvTime                        0x1fff0948   Data           0  bb_rom_sym_m0.txt ABSOLUTE
    g_pAdvSchInfo                            0x1fff094c   Data           0  bb_rom_sym_m0.txt ABSOLUTE
    g_advPerSlotTick                         0x1fff0950   Data           0  bb_rom_sym_m0.txt ABSOLUTE
    g_advSlotPeriodic                        0x1fff0954   Data           0  bb_rom_sym_m0.txt ABSOLUTE
    g_pAdvSchInfo_periodic                   0x1fff0958   Data           0  bb_rom_sym_m0.txt ABSOLUTE
    g_timerExpiryTick                        0x1fff095c   Data           0  bb_rom_sym_m0.txt ABSOLUTE
    chanMapUpdate                            0x1fff0960   Data           0  bb_rom_sym_m0.txt ABSOLUTE
    ownPublicAddr                            0x1fff0965   Data           0  bb_rom_sym_m0.txt ABSOLUTE
    ownRandomAddr                            0x1fff096b   Data           0  bb_rom_sym_m0.txt ABSOLUTE
    verInfo                                  0x1fff0972   Data           0  bb_rom_sym_m0.txt ABSOLUTE
    peerInfo                                 0x1fff0978   Data           0  bb_rom_sym_m0.txt ABSOLUTE
    g_currentAdvTimer                        0x1fff0980   Data           0  bb_rom_sym_m0.txt ABSOLUTE
    g_currentTimerTask                       0x1fff0984   Data           0  bb_rom_sym_m0.txt ABSOLUTE
    g_adv_taskID                             0x1fff0988   Data           0  bb_rom_sym_m0.txt ABSOLUTE
    g_conn_taskID                            0x1fff0989   Data           0  bb_rom_sym_m0.txt ABSOLUTE
    g_smartWindowRTOCnt                      0x1fff098a   Data           0  bb_rom_sym_m0.txt ABSOLUTE
    isPeerRpaStore                           0x1fff098b   Data           0  bb_rom_sym_m0.txt ABSOLUTE
    g_same_rf_channel_flag                   0x1fff098c   Data           0  bb_rom_sym_m0.txt ABSOLUTE
    g_currentPeerAddrType                    0x1fff098d   Data           0  bb_rom_sym_m0.txt ABSOLUTE
    g_currentLocalAddrType                   0x1fff098e   Data           0  bb_rom_sym_m0.txt ABSOLUTE
    storeRpaListIndex                        0x1fff098f   Data           0  bb_rom_sym_m0.txt ABSOLUTE
    llTaskState                              0x1fff0990   Data           0  bb_rom_sym_m0.txt ABSOLUTE
    g_adv_taskEvent                          0x1fff0992   Data           0  bb_rom_sym_m0.txt ABSOLUTE
    g_conn_taskEvent                         0x1fff0994   Data           0  bb_rom_sym_m0.txt ABSOLUTE
    llWaitingIrq                             0x1fff0998   Data           0  bb_rom_sym_m0.txt ABSOLUTE
    ISR_entry_time                           0x1fff099c   Data           0  bb_rom_sym_m0.txt ABSOLUTE
    slave_conn_event_recv_delay              0x1fff09a0   Data           0  bb_rom_sym_m0.txt ABSOLUTE
    g_smartWindowLater                       0x1fff09a4   Data           0  bb_rom_sym_m0.txt ABSOLUTE
    g_smartWindowActiveCnt                   0x1fff09a8   Data           0  bb_rom_sym_m0.txt ABSOLUTE
    g_smartWindowPreAnchPoint                0x1fff09ac   Data           0  bb_rom_sym_m0.txt ABSOLUTE
    g_getPn23_cnt                            0x1fff09b0   Data           0  bb_rom_sym_m0.txt ABSOLUTE
    g_getPn23_seed                           0x1fff09b4   Data           0  bb_rom_sym_m0.txt ABSOLUTE
    llScanTime                               0x1fff09b8   Data           0  bb_rom_sym_m0.txt ABSOLUTE
    p_perStatsByChan                         0x1fff09bc   Data           0  bb_rom_sym_m0.txt ABSOLUTE
    LL_PLUS_AdvDataFilterCBack               0x1fff09c0   Data           0  bb_rom_sym_m0.txt ABSOLUTE
    LL_PLUS_ScanRequestFilterCBack           0x1fff09c4   Data           0  bb_rom_sym_m0.txt ABSOLUTE
    g_new_master_delta                       0x1fff09c8   Data           0  bb_rom_sym_m0.txt ABSOLUTE
    llScanT1                                 0x1fff09cc   Data           0  bb_rom_sym_m0.txt ABSOLUTE
    llCurrentScanChn                         0x1fff09d0   Data           0  bb_rom_sym_m0.txt ABSOLUTE
    g_currentLocalRpa                        0x1fff09d4   Data           0  bb_rom_sym_m0.txt ABSOLUTE
    g_currentPeerRpa                         0x1fff09da   Data           0  bb_rom_sym_m0.txt ABSOLUTE
    currentPeerRpa                           0x1fff09e0   Data           0  bb_rom_sym_m0.txt ABSOLUTE
    g_dle_taskID                             0x1fff09e6   Data           0  bb_rom_sym_m0.txt ABSOLUTE
    g_dle_taskEvent                          0x1fff09e8   Data           0  bb_rom_sym_m0.txt ABSOLUTE
    g_phyChg_taskID                          0x1fff09ea   Data           0  bb_rom_sym_m0.txt ABSOLUTE
    g_phyChg_taskEvent                       0x1fff09ec   Data           0  bb_rom_sym_m0.txt ABSOLUTE
    g_smartWindowSize                        0x1fff09f0   Data           0  bb_rom_sym_m0.txt ABSOLUTE
    g_smartWindowSizeNew                     0x1fff09f4   Data           0  bb_rom_sym_m0.txt ABSOLUTE
    g_smartWindowActive                      0x1fff09f8   Data           0  bb_rom_sym_m0.txt ABSOLUTE
    g_interAuxPduDuration                    0x1fff09fc   Data           0  bb_rom_sym_m0.txt ABSOLUTE
    connUpdateTimer                          0x1fff0a04   Data           0  bb_rom_sym_m0.txt ABSOLUTE
    sleep_flag                               0x1fff0a0c   Data           0  bb_rom_sym_m0.txt ABSOLUTE
    g_wakeup_rtc_tick                        0x1fff0a10   Data           0  bb_rom_sym_m0.txt ABSOLUTE
    g_counter_traking_avg                    0x1fff0a14   Data           0  bb_rom_sym_m0.txt ABSOLUTE
    g_TIM2_IRQ_TIM3_CurrCount                0x1fff0a18   Data           0  bb_rom_sym_m0.txt ABSOLUTE
    g_TIM2_IRQ_to_Sleep_DeltTick             0x1fff0a1c   Data           0  bb_rom_sym_m0.txt ABSOLUTE
    g_TIM2_IRQ_PendingTick                   0x1fff0a20   Data           0  bb_rom_sym_m0.txt ABSOLUTE
    g_osal_tick_trim                         0x1fff0a24   Data           0  bb_rom_sym_m0.txt ABSOLUTE
    g_osalTickTrim_mod                       0x1fff0a28   Data           0  bb_rom_sym_m0.txt ABSOLUTE
    rtc_mod_value                            0x1fff0a2c   Data           0  bb_rom_sym_m0.txt ABSOLUTE
    g_counter_traking_cnt                    0x1fff0a30   Data           0  bb_rom_sym_m0.txt ABSOLUTE
    sleep_tick                               0x1fff0a34   Data           0  bb_rom_sym_m0.txt ABSOLUTE
    counter_tracking                         0x1fff0a38   Data           0  bb_rom_sym_m0.txt ABSOLUTE
    forever_write                            0x1fff0a3c   Data           0  bb_rom_sym_m0.txt ABSOLUTE
    g_TIM2_wakeup_delay                      0x1fff0a40   Data           0  bb_rom_sym_m0.txt ABSOLUTE
    g_rfPhyTpCal0                            0x1fff0a44   Data           0  bb_rom_sym_m0.txt ABSOLUTE
    g_rfPhyTpCal1                            0x1fff0a45   Data           0  bb_rom_sym_m0.txt ABSOLUTE
    g_rfPhyTpCal0_2Mbps                      0x1fff0a46   Data           0  bb_rom_sym_m0.txt ABSOLUTE
    g_rfPhyTpCal1_2Mbps                      0x1fff0a47   Data           0  bb_rom_sym_m0.txt ABSOLUTE
    g_rfPhyTxPower                           0x1fff0a48   Data           0  bb_rom_sym_m0.txt ABSOLUTE
    g_rfPhyPktFmt                            0x1fff0a49   Data           0  bb_rom_sym_m0.txt ABSOLUTE
    g_system_clk                             0x1fff0a4a   Data           0  bb_rom_sym_m0.txt ABSOLUTE
    g_rfPhyClkSel                            0x1fff0a4b   Data           0  bb_rom_sym_m0.txt ABSOLUTE
    g_rxAdcClkSel                            0x1fff0a4c   Data           0  bb_rom_sym_m0.txt ABSOLUTE
    g_dtmModeType                            0x1fff0a4d   Data           0  bb_rom_sym_m0.txt ABSOLUTE
    g_dtmLength                              0x1fff0a4e   Data           0  bb_rom_sym_m0.txt ABSOLUTE
    g_dtmExtLen                              0x1fff0a4f   Data           0  bb_rom_sym_m0.txt ABSOLUTE
    g_dtmPKT                                 0x1fff0a50   Data           0  bb_rom_sym_m0.txt ABSOLUTE
    g_dtmTxPower                             0x1fff0a51   Data           0  bb_rom_sym_m0.txt ABSOLUTE
    g_dtmRssi                                0x1fff0a52   Data           0  bb_rom_sym_m0.txt ABSOLUTE
    g_dtmCarrSens                            0x1fff0a53   Data           0  bb_rom_sym_m0.txt ABSOLUTE
    g_dtmPktIntv                             0x1fff0a54   Data           0  bb_rom_sym_m0.txt ABSOLUTE
    g_dtmPktCount                            0x1fff0a56   Data           0  bb_rom_sym_m0.txt ABSOLUTE
    g_dtmRxCrcNum                            0x1fff0a58   Data           0  bb_rom_sym_m0.txt ABSOLUTE
    g_dtmRxTONum                             0x1fff0a5a   Data           0  bb_rom_sym_m0.txt ABSOLUTE
    g_dtmRsp                                 0x1fff0a5c   Data           0  bb_rom_sym_m0.txt ABSOLUTE
    g_dtmFoff                                0x1fff0a5e   Data           0  bb_rom_sym_m0.txt ABSOLUTE
    g_rfPhyRxDcIQ                            0x1fff0a60   Data           0  bb_rom_sym_m0.txt ABSOLUTE
    g_dtmTick                                0x1fff0a64   Data           0  bb_rom_sym_m0.txt ABSOLUTE
    g_rfPhyFreqOffSet                        0x1fff0a68   Data           0  bb_rom_sym_m0.txt ABSOLUTE
    g_rfPhyDtmCmd                            0x1fff0a69   Data           0  bb_rom_sym_m0.txt ABSOLUTE
    g_rfPhyDtmEvt                            0x1fff0a6b   Data           0  bb_rom_sym_m0.txt ABSOLUTE
    g_dtmCmd                                 0x1fff0a6d   Data           0  bb_rom_sym_m0.txt ABSOLUTE
    g_dtmFreq                                0x1fff0a6e   Data           0  bb_rom_sym_m0.txt ABSOLUTE
    g_dtmCtrl                                0x1fff0a6f   Data           0  bb_rom_sym_m0.txt ABSOLUTE
    g_dtmPara                                0x1fff0a70   Data           0  bb_rom_sym_m0.txt ABSOLUTE
    g_dtmEvt                                 0x1fff0a71   Data           0  bb_rom_sym_m0.txt ABSOLUTE
    g_dtmStatus                              0x1fff0a72   Data           0  bb_rom_sym_m0.txt ABSOLUTE
    g_dtmTpCalEnable                         0x1fff0a73   Data           0  bb_rom_sym_m0.txt ABSOLUTE
    g_dtmPerAutoIntv                         0x1fff0a74   Data           0  bb_rom_sym_m0.txt ABSOLUTE
    g_dtmAccessCode                          0x1fff0a78   Data           0  bb_rom_sym_m0.txt ABSOLUTE
    g_system_reset_cause                     0x1fff0a80   Data           0  bb_rom_sym_m0.txt ABSOLUTE
    cbTimers                                 0x1fff0afc   Data           0  bb_rom_sym_m0.txt ABSOLUTE
    g_llSleepContext                         0x1fff0b74   Data           0  bb_rom_sym_m0.txt ABSOLUTE
    syncInfo                                 0x1fff0b84   Data           0  bb_rom_sym_m0.txt ABSOLUTE
    scanSyncInfo                             0x1fff0b96   Data           0  bb_rom_sym_m0.txt ABSOLUTE
    adv_param                                0x1fff0ba6   Data           0  bb_rom_sym_m0.txt ABSOLUTE
    scanInfo                                 0x1fff0bbc   Data           0  bb_rom_sym_m0.txt ABSOLUTE
    initInfo                                 0x1fff0bd4   Data           0  bb_rom_sym_m0.txt ABSOLUTE
    extScanInfo                              0x1fff0be8   Data           0  bb_rom_sym_m0.txt ABSOLUTE
    extInitInfo                              0x1fff0c10   Data           0  bb_rom_sym_m0.txt ABSOLUTE
    g_llPeriodAdvSyncInfo                    0x1fff0c50   Data           0  bb_rom_sym_m0.txt ABSOLUTE
    g_ll_conn_ctx                            0x1fff0d30   Data           0  bb_rom_sym_m0.txt ABSOLUTE
    deviceFeatureSet                         0x1fff0e48   Data           0  bb_rom_sym_m0.txt ABSOLUTE
    g_llWhitelist                            0x1fff0e51   Data           0  bb_rom_sym_m0.txt ABSOLUTE
    g_llResolvinglist                        0x1fff0e89   Data           0  bb_rom_sym_m0.txt ABSOLUTE
    g_pmCounters                             0x1fff0ffc   Data           0  bb_rom_sym_m0.txt ABSOLUTE
    g_llPduLen                               0x1fff1084   Data           0  bb_rom_sym_m0.txt ABSOLUTE
    rfCounters                               0x1fff10e0   Data           0  bb_rom_sym_m0.txt ABSOLUTE
    ext_adv_hdr                              0x1fff10ec   Data           0  bb_rom_sym_m0.txt ABSOLUTE
    dataPkt                                  0x1fff1118   Data           0  bb_rom_sym_m0.txt ABSOLUTE
    cachedTRNGdata                           0x1fff1138   Data           0  bb_rom_sym_m0.txt ABSOLUTE
    whiten_seed                              0x1fff1144   Data           0  bb_rom_sym_m0.txt ABSOLUTE
    g_tx_adv_buf                             0x1fff116c   Data           0  bb_rom_sym_m0.txt ABSOLUTE
    g_tx_ext_adv_buf                         0x1fff1278   Data           0  bb_rom_sym_m0.txt ABSOLUTE
    tx_scanRsp_desc                          0x1fff1384   Data           0  bb_rom_sym_m0.txt ABSOLUTE
    g_rx_adv_buf                             0x1fff1490   Data           0  bb_rom_sym_m0.txt ABSOLUTE
    __Vectors                                0x1fff1838   Data           4  startup_armcm0.o(RESET)
    __Vectors_End                            0x1fff1840   Data           0  startup_armcm0.o(RESET)
    __main                                   0x1fff1841   Thumb Code     0  entry.o(.ARM.Collect$$$$00000000)
    _main_stk                                0x1fff1841   Thumb Code     0  entry2.o(.ARM.Collect$$$$00000001)
    _main_scatterload                        0x1fff1845   Thumb Code     0  entry5.o(.ARM.Collect$$$$00000004)
    __main_after_scatterload                 0x1fff1849   Thumb Code     0  entry5.o(.ARM.Collect$$$$00000004)
    _main_clock                              0x1fff1849   Thumb Code     0  entry7b.o(.ARM.Collect$$$$00000008)
    _main_cpp_init                           0x1fff1849   Thumb Code     0  entry8b.o(.ARM.Collect$$$$0000000A)
    _main_init                               0x1fff1849   Thumb Code     0  entry9a.o(.ARM.Collect$$$$0000000B)
    __rt_lib_shutdown_fini                   0x1fff1851   Thumb Code     0  entry12b.o(.ARM.Collect$$$$0000000E)
    __rt_final_cpp                           0x1fff1855   Thumb Code     0  entry10a.o(.ARM.Collect$$$$0000000F)
    __rt_final_exit                          0x1fff1855   Thumb Code     0  entry11a.o(.ARM.Collect$$$$00000011)
    hard_fault                               0x1fff1859   Thumb Code    40  jump_table.o(.emb_text)
    Reset_Handler                            0x1fff1889   Thumb Code     8  startup_armcm0.o(.text)
    __aeabi_dadd                             0x1fff189d   Thumb Code   330  dadd.o(.text)
    __aeabi_dsub                             0x1fff19e7   Thumb Code    12  dadd.o(.text)
    __aeabi_drsub                            0x1fff19f3   Thumb Code    12  dadd.o(.text)
    __aeabi_dmul                             0x1fff1a05   Thumb Code   202  dmul.o(.text)
    __aeabi_ddiv                             0x1fff1ad5   Thumb Code   234  ddiv.o(.text)
    __aeabi_ui2d                             0x1fff1bc5   Thumb Code    24  dfltui.o(.text)
    __aeabi_d2uiz                            0x1fff1be1   Thumb Code    50  dfixui.o(.text)
    __aeabi_llsl                             0x1fff1c1d   Thumb Code    32  llshl.o(.text)
    _ll_shift_l                              0x1fff1c1d   Thumb Code     0  llshl.o(.text)
    __aeabi_llsr                             0x1fff1c3d   Thumb Code    34  llushr.o(.text)
    _ll_ushift_r                             0x1fff1c3d   Thumb Code     0  llushr.o(.text)
    __aeabi_lasr                             0x1fff1c5f   Thumb Code    38  llsshr.o(.text)
    _ll_sshift_r                             0x1fff1c5f   Thumb Code     0  llsshr.o(.text)
    __I$use$fp                               0x1fff1c85   Thumb Code     0  iusefp.o(.text)
    _double_round                            0x1fff1c85   Thumb Code    26  depilogue.o(.text)
    _double_epilogue                         0x1fff1c9f   Thumb Code   164  depilogue.o(.text)
    __scatterload                            0x1fff1d45   Thumb Code    28  init.o(.text)
    __scatterload_rt2                        0x1fff1d45   Thumb Code     0  init.o(.text)
    __decompress                             0x1fff1d69   Thumb Code     0  __dczerorl2.o(.text)
    __decompress1                            0x1fff1d69   Thumb Code    86  __dczerorl2.o(.text)
    Long Thumb to Thumb Veneer to osal_pwrmgr_powerconserve0 0x1fff1dc1   Thumb Code    12  anon$$obj.o(Veneer$$Code)
    Long Thumb to Thumb Veneer to drv_disable_irq 0x1fff1dcd   Thumb Code    12  anon$$obj.o(Veneer$$Code)
    Long Thumb to Thumb Veneer to config_RTC 0x1fff1dd9   Thumb Code    12  anon$$obj.o(Veneer$$Code)
    Long Thumb to Thumb Veneer to enter_sleep_off_mode 0x1fff1de5   Thumb Code    12  anon$$obj.o(Veneer$$Code)
    Long Thumb to Thumb Veneer to drv_enable_irq 0x1fff1df1   Thumb Code    12  anon$$obj.o(Veneer$$Code)
    Long Thumb to Thumb Veneer to enableSleep 0x1fff1dfd   Thumb Code    12  anon$$obj.o(Veneer$$Code)
    Long Thumb to Thumb Veneer to setSleepMode 0x1fff1e09   Thumb Code    12  anon$$obj.o(Veneer$$Code)
    Long Thumb to Thumb Veneer to WaitRTCCount 0x1fff1e15   Thumb Code    12  anon$$obj.o(Veneer$$Code)
    Long Thumb to Thumb Veneer to LL_ENC_AES128_Encrypt 0x1fff1e21   Thumb Code    12  anon$$obj.o(Veneer$$Code)
    Long Thumb to Thumb Veneer to osal_memcpy 0x1fff1e2d   Thumb Code    12  anon$$obj.o(Veneer$$Code)
    Long Thumb to Thumb Veneer to read_current_fine_time 0x1fff1e39   Thumb Code    12  anon$$obj.o(Veneer$$Code)
    Long Thumb to Thumb Veneer to LL_ENC_AES128_Encrypt0 0x1fff1e45   Thumb Code    12  anon$$obj.o(Veneer$$Code)
    Long Thumb to Thumb Veneer to LL_ENC_LoadKey 0x1fff1e51   Thumb Code    12  anon$$obj.o(Veneer$$Code)
    Long Thumb to Thumb Veneer to LL_ENC_GenerateNonce 0x1fff1e5d   Thumb Code    12  anon$$obj.o(Veneer$$Code)
    Long Thumb to Thumb Veneer to __aeabi_uread4 0x1fff1e69   Thumb Code    12  anon$$obj.o(Veneer$$Code)
    Long Thumb to Thumb Veneer to ll_debug_output 0x1fff1e75   Thumb Code    12  anon$$obj.o(Veneer$$Code)
    Long Thumb to Thumb Veneer to ll_hw_get_irq_status 0x1fff1e81   Thumb Code    12  anon$$obj.o(Veneer$$Code)
    Long Thumb to Thumb Veneer to ll_hw_get_tr_mode 0x1fff1e8d   Thumb Code    12  anon$$obj.o(Veneer$$Code)
    Long Thumb to Thumb Veneer to ll_hw_clr_irq 0x1fff1e99   Thumb Code    12  anon$$obj.o(Veneer$$Code)
    Long Thumb to Thumb Veneer to ll_processExtAdvIRQ 0x1fff1ea5   Thumb Code    12  anon$$obj.o(Veneer$$Code)
    Long Thumb to Thumb Veneer to ll_processExtScanIRQ 0x1fff1eb1   Thumb Code    12  anon$$obj.o(Veneer$$Code)
    Long Thumb to Thumb Veneer to ll_processExtInitIRQ 0x1fff1ebd   Thumb Code    12  anon$$obj.o(Veneer$$Code)
    Long Thumb to Thumb Veneer to ll_processPrdAdvIRQ 0x1fff1ec9   Thumb Code    12  anon$$obj.o(Veneer$$Code)
    Long Thumb to Thumb Veneer to ll_processPrdScanIRQ 0x1fff1ed5   Thumb Code    12  anon$$obj.o(Veneer$$Code)
    Long Thumb to Thumb Veneer to ll_processBasicIRQ 0x1fff1ee1   Thumb Code    12  anon$$obj.o(Veneer$$Code)
    Long Thumb to Thumb Veneer to ll_schedule_next_event 0x1fff1eed   Thumb Code    12  anon$$obj.o(Veneer$$Code)
    Long Thumb to Thumb Veneer to llSecAdvAllow 0x1fff1ef9   Thumb Code    12  anon$$obj.o(Veneer$$Code)
    Long Thumb to Thumb Veneer to llSetupSecAdvEvt 0x1fff1f05   Thumb Code    12  anon$$obj.o(Veneer$$Code)
    Long Thumb to Thumb Veneer to ll_hw_set_rx_timeout 0x1fff1f11   Thumb Code    12  anon$$obj.o(Veneer$$Code)
    Long Thumb to Thumb Veneer to llSetupSecScan 0x1fff1f1d   Thumb Code    12  anon$$obj.o(Veneer$$Code)
    Long Thumb to Thumb Veneer to llSetupSecInit 0x1fff1f29   Thumb Code    12  anon$$obj.o(Veneer$$Code)
    Long Thumb to Thumb Veneer to LL_SetDataLengh0 0x1fff1f35   Thumb Code    12  anon$$obj.o(Veneer$$Code)
    Long Thumb to Thumb Veneer to LL_set_default_conn_params0 0x1fff1f41   Thumb Code    12  anon$$obj.o(Veneer$$Code)
    Long Thumb to Thumb Veneer to ll_hw_read_rfifo 0x1fff1f4d   Thumb Code    12  anon$$obj.o(Veneer$$Code)
    Long Thumb to Thumb Veneer to ll_hw_read_rfifo_pplus 0x1fff1f59   Thumb Code    12  anon$$obj.o(Veneer$$Code)
    Long Thumb to Thumb Veneer to osal_set_event 0x1fff1f65   Thumb Code    12  anon$$obj.o(Veneer$$Code)
    Long Thumb to Thumb Veneer to osal_start_timerEx 0x1fff1f71   Thumb Code    12  anon$$obj.o(Veneer$$Code)
    Long Thumb to Thumb Veneer to __aeabi_uidivmod 0x1fff1f7d   Thumb Code    12  anon$$obj.o(Veneer$$Code)
    Long Thumb to Thumb Veneer to efuse_read 0x1fff1f89   Thumb Code    12  anon$$obj.o(Veneer$$Code)
    Long Thumb to Thumb Veneer to log_printf 0x1fff1f95   Thumb Code    12  anon$$obj.o(Veneer$$Code)
    Long Thumb to Thumb Veneer to spif_cmd   0x1fff1fa1   Thumb Code    12  anon$$obj.o(Veneer$$Code)
    Long Thumb to Thumb Veneer to spif_rddata 0x1fff1fad   Thumb Code    12  anon$$obj.o(Veneer$$Code)
    Long Thumb to Thumb Veneer to __ARM_common_switch8 0x1fff1fb9   Thumb Code    12  anon$$obj.o(Veneer$$Code)
    Long Thumb to Thumb Veneer to osal_init_system 0x1fff1fc5   Thumb Code    12  anon$$obj.o(Veneer$$Code)
    Long Thumb to Thumb Veneer to osal_pwrmgr_device 0x1fff1fd1   Thumb Code    12  anon$$obj.o(Veneer$$Code)
    Long Thumb to Thumb Veneer to osal_start_system 0x1fff1fdd   Thumb Code    12  anon$$obj.o(Veneer$$Code)
    Long Thumb to Thumb Veneer to rtc_get_counter 0x1fff1fe9   Thumb Code    12  anon$$obj.o(Veneer$$Code)
    Long Thumb to Thumb Veneer to set_sleep_flag 0x1fff1ff5   Thumb Code    12  anon$$obj.o(Veneer$$Code)
    Long Thumb to Thumb Veneer to __aeabi_memclr4 0x1fff2001   Thumb Code    12  anon$$obj.o(Veneer$$Code)
    Long Thumb to Thumb Veneer to read_LL_remainder_time 0x1fff200d   Thumb Code    12  anon$$obj.o(Veneer$$Code)
    Long Thumb to Thumb Veneer to enterSleepProcess0 0x1fff2019   Thumb Code    12  anon$$obj.o(Veneer$$Code)
    Long Thumb to Thumb Veneer to osal_memcmp 0x1fff2025   Thumb Code    12  anon$$obj.o(Veneer$$Code)
    Long Thumb to Thumb Veneer to __aeabi_idivmod 0x1fff2031   Thumb Code    12  anon$$obj.o(Veneer$$Code)
    Long Thumb to Thumb Veneer to __aeabi_memcpy4 0x1fff203d   Thumb Code    12  anon$$obj.o(Veneer$$Code)
    Long Thumb to Thumb Veneer to disableSleep 0x1fff2049   Thumb Code    12  anon$$obj.o(Veneer$$Code)
    Long Thumb to Thumb Veneer to osal_mem_set_heap 0x1fff2055   Thumb Code    12  anon$$obj.o(Veneer$$Code)
    Long Thumb to Thumb Veneer to spif_config 0x1fff2061   Thumb Code    12  anon$$obj.o(Veneer$$Code)
    Long Thumb to Thumb Veneer to llConnTerminate0 0x1fff206d   Thumb Code    12  anon$$obj.o(Veneer$$Code)
    Long Thumb to Thumb Veneer to llProcessChanMap 0x1fff2079   Thumb Code    12  anon$$obj.o(Veneer$$Code)
    Long Thumb to Thumb Veneer to llProcessTxData0 0x1fff2085   Thumb Code    12  anon$$obj.o(Veneer$$Code)
    Long Thumb to Thumb Veneer to ll_hw_get_loop_cycle 0x1fff2091   Thumb Code    12  anon$$obj.o(Veneer$$Code)
    Long Thumb to Thumb Veneer to ll_hw_get_anchor 0x1fff209d   Thumb Code    12  anon$$obj.o(Veneer$$Code)
    Long Thumb to Thumb Veneer to ll_hw_write_tfifo 0x1fff20a9   Thumb Code    12  anon$$obj.o(Veneer$$Code)
    Long Thumb to Thumb Veneer to ll_hw_get_tfifo_wrptr 0x1fff20b5   Thumb Code    12  anon$$obj.o(Veneer$$Code)
    Long Thumb to Thumb Veneer to getTxBufferSize 0x1fff20c1   Thumb Code    12  anon$$obj.o(Veneer$$Code)
    Long Thumb to Thumb Veneer to get_tx_read_ptr 0x1fff20cd   Thumb Code    12  anon$$obj.o(Veneer$$Code)
    Long Thumb to Thumb Veneer to update_tx_read_ptr 0x1fff20d9   Thumb Code    12  anon$$obj.o(Veneer$$Code)
    Long Thumb to Thumb Veneer to llEnqueueCtrlPkt 0x1fff20e5   Thumb Code    12  anon$$obj.o(Veneer$$Code)
    Long Thumb to Thumb Veneer to set_max_length 0x1fff20f1   Thumb Code    12  anon$$obj.o(Veneer$$Code)
    Long Thumb to Thumb Veneer to drv_irq_init 0x1fff20fd   Thumb Code    12  anon$$obj.o(Veneer$$Code)
    Long Thumb to Thumb Veneer to clk_init   0x1fff2109   Thumb Code    12  anon$$obj.o(Veneer$$Code)
    Long Thumb to Thumb Veneer to osal_mem_alloc 0x1fff2115   Thumb Code    12  anon$$obj.o(Veneer$$Code)
    Long Thumb to Thumb Veneer to osal_memset 0x1fff2121   Thumb Code    12  anon$$obj.o(Veneer$$Code)
    Long Thumb to Thumb Veneer to ll_hw_set_crc_fmt 0x1fff212d   Thumb Code    12  anon$$obj.o(Veneer$$Code)
    Long Thumb to Thumb Veneer to ll_hw_ign_rfifo 0x1fff2139   Thumb Code    12  anon$$obj.o(Veneer$$Code)
    Long Thumb to Thumb Veneer to ll_hw_set_pplus_pktfmt 0x1fff2145   Thumb Code    12  anon$$obj.o(Veneer$$Code)
    Long Thumb to Thumb Veneer to ll_hw_set_stx 0x1fff2151   Thumb Code    12  anon$$obj.o(Veneer$$Code)
    Long Thumb to Thumb Veneer to ll_hw_set_trx_settle 0x1fff215d   Thumb Code    12  anon$$obj.o(Veneer$$Code)
    Long Thumb to Thumb Veneer to ll_hw_set_trx 0x1fff2169   Thumb Code    12  anon$$obj.o(Veneer$$Code)
    Long Thumb to Thumb Veneer to ll_hw_set_tx_rx_release 0x1fff2175   Thumb Code    12  anon$$obj.o(Veneer$$Code)
    Long Thumb to Thumb Veneer to ll_hw_set_rx_tx_interval 0x1fff2181   Thumb Code    12  anon$$obj.o(Veneer$$Code)
    Long Thumb to Thumb Veneer to ll_hw_set_tx_rx_interval 0x1fff218d   Thumb Code    12  anon$$obj.o(Veneer$$Code)
    Long Thumb to Thumb Veneer to ll_hw_rst_tfifo 0x1fff2199   Thumb Code    12  anon$$obj.o(Veneer$$Code)
    Long Thumb to Thumb Veneer to ll_hw_rst_rfifo 0x1fff21a5   Thumb Code    12  anon$$obj.o(Veneer$$Code)
    Long Thumb to Thumb Veneer to ll_hw_tx2rx_timing_config 0x1fff21b1   Thumb Code    12  anon$$obj.o(Veneer$$Code)
    Long Thumb to Thumb Veneer to __aeabi_memcpy 0x1fff21bd   Thumb Code    12  anon$$obj.o(Veneer$$Code)
    Long Thumb to Thumb Veneer to clk_get_pclk 0x1fff21c9   Thumb Code    12  anon$$obj.o(Veneer$$Code)
    Long Thumb to Thumb Veneer to osalTimeUpdate 0x1fff21d5   Thumb Code    12  anon$$obj.o(Veneer$$Code)
    Long Thumb to Thumb Veneer to set_timer  0x1fff21e1   Thumb Code    12  anon$$obj.o(Veneer$$Code)
    Long Thumb to Thumb Veneer to app_wakeup_process 0x1fff21ed   Thumb Code    12  anon$$obj.o(Veneer$$Code)
    Long Thumb to Thumb Veneer to ll_hw_set_empty_head 0x1fff21f9   Thumb Code    12  anon$$obj.o(Veneer$$Code)
    Long Thumb to Thumb Veneer to ll_hw_set_rx_timeout_1st 0x1fff2205   Thumb Code    12  anon$$obj.o(Veneer$$Code)
    Long Thumb to Thumb Veneer to ll_hw_set_loop_timeout 0x1fff2211   Thumb Code    12  anon$$obj.o(Veneer$$Code)
    Long Thumb to Thumb Veneer to ll_hw_set_timing 0x1fff221d   Thumb Code    12  anon$$obj.o(Veneer$$Code)
    hal_UART1_IRQHandler                     0x1fff2307   Thumb Code    52  uart.o(_section_sram_code_)
    hal_UART0_IRQHandler                     0x1fff233b   Thumb Code    52  uart.o(_section_sram_code_)
    osal_idle_task                           0x1fff2381   Thumb Code    14  pwrmgr.o(_section_sram_code_)
    hal_pwrmgr_enter_sleep_rtc_reset         0x1fff238f   Thumb Code    42  pwrmgr.o(_section_sram_code_)
    init_config                              0x1fff23f9   Thumb Code   588  patch.o(_section_xip_code_)
    TRNG_INIT                                0x1fff268d   Thumb Code    34  patch.o(_section_xip_code_)
    TRNG_Rand                                0x1fff26af   Thumb Code   152  patch.o(_section_xip_code_)
    IIC_Ack                                  0x1fff27f1   Thumb Code    52  iic_1.o(i.IIC_Ack)
    IIC_NAck                                 0x1fff2825   Thumb Code    52  iic_1.o(i.IIC_NAck)
    IIC_Read_Byte                            0x1fff2859   Thumb Code    68  iic_1.o(i.IIC_Read_Byte)
    IIC_Send_Byte                            0x1fff289d   Thumb Code    82  iic_1.o(i.IIC_Send_Byte)
    IIC_Start                                0x1fff28ef   Thumb Code    52  iic_1.o(i.IIC_Start)
    IIC_Stop                                 0x1fff2923   Thumb Code    44  iic_1.o(i.IIC_Stop)
    IIC_Wait_Ack                             0x1fff2951   Thumb Code    76  iic_1.o(i.IIC_Wait_Ack)
    InsertSort                               0x1fff29a5   Thumb Code    54  adc_demo.o(i.InsertSort)
    LL_ENC_AES128_Encrypt1                   0x1fff29db   Thumb Code    26  patch.o(i.LL_ENC_AES128_Encrypt1)
    LL_ENC_Decrypt1                          0x1fff29f5   Thumb Code   364  patch.o(i.LL_ENC_Decrypt1)
    LL_ENC_Encrypt1                          0x1fff2b6d   Thumb Code   342  patch.o(i.LL_ENC_Encrypt1)
    LL_IRQHandler1                           0x1fff2ccd   Thumb Code   350  patch.o(i.LL_IRQHandler1)
    LL_SetDataLengh1                         0x1fff2e4d   Thumb Code    40  patch.o(i.LL_SetDataLengh1)
    LL_set_default_conn_params1              0x1fff2e7d   Thumb Code    14  patch.o(i.LL_set_default_conn_params1)
    PLUSPHY_IRQHandler                       0x1fff2ea5   Thumb Code   250  phy_rf.o(i.PLUSPHY_IRQHandler)
    PhyRf_Init                               0x1fff2fb1   Thumb Code   250  phy_rf.o(i.PhyRf_Init)
    PhyRf_ProcessEvent                       0x1fff30cd   Thumb Code   132  phy_rf.o(i.PhyRf_ProcessEvent)
    SDA_IN                                   0x1fff315d   Thumb Code    20  iic_1.o(i.SDA_IN)
    SDA_OUT                                  0x1fff3171   Thumb Code    12  iic_1.o(i.SDA_OUT)
    SystemInit                               0x1fff317d   Thumb Code     8  system_armcm0.o(i.SystemInit)
    WaitMs                                   0x1fff318d   Thumb Code    18  clock.o(i.WaitMs)
    WaitUs                                   0x1fff31a1   Thumb Code    36  clock.o(i.WaitUs)
    __ARM_clz                                0x1fff31cd   Thumb Code    46  depilogue.o(i.__ARM_clz)
    __scatterload_copy                       0x1fff32e1   Thumb Code    14  handlers.o(i.__scatterload_copy)
    __scatterload_null                       0x1fff32ef   Thumb Code     2  handlers.o(i.__scatterload_null)
    __scatterload_zeroinit                   0x1fff32f1   Thumb Code    14  handlers.o(i.__scatterload_zeroinit)
    __wdt_init                               0x1fff3301   Thumb Code    12  patch.o(i.__wdt_init)
    _efuse_chip_version_check                0x1fff3311   Thumb Code    26  phy_sec_ext.o(i._efuse_chip_version_check)
    _hard_fault                              0x1fff3331   Thumb Code   166  jump_table.o(i._hard_fault)
    _rom_sec_boot_init                       0x1fff3519   Thumb Code    22  phy_sec_ext.o(i._rom_sec_boot_init)
    adcMeasureCh                             0x1fff35ad   Thumb Code   130  adc_demo.o(i.adcMeasureCh)
    adc_init_r                               0x1fff363d   Thumb Code   444  adc.o(i.adc_init_r)
    adc_stop_r                               0x1fff37fd   Thumb Code     8  adc.o(i.adc_stop_r)
    app_main                                 0x1fff3821   Thumb Code    20  phy_rf.o(i.app_main)
    change_adv_buffer                        0x1fff3835   Thumb Code    52  my.o(i.change_adv_buffer)
    config_RTC1                              0x1fff3ae5   Thumb Code   110  patch.o(i.config_RTC1)
    dbg_printf                               0x1fff3b75   Thumb Code    22  my_printf.o(i.dbg_printf)
    dbg_printf_init                          0x1fff3b91   Thumb Code    16  my_printf.o(i.dbg_printf_init)
    delay_ms                                 0x1fff3ba5   Thumb Code     8  iic_1.o(i.delay_ms)
    delay_us                                 0x1fff3bad   Thumb Code    10  iic_1.o(i.delay_us)
    efuse_init                               0x1fff3bb9   Thumb Code    14  phy_sec_ext.o(i.efuse_init)
    enterSleepProcess1                       0x1fff3bd1   Thumb Code    34  patch.o(i.enterSleepProcess1)
    finidv                                   0x1fff3bfd   Thumb Code   126  phy_sec_ext.o(i.finidv)
    get_adc                                  0x1fff3c89   Thumb Code   134  adc_demo.o(i.get_adc)
    hal_ADC_IRQHandler                       0x1fff3d41   Thumb Code   182  adc.o(i.hal_ADC_IRQHandler)
    hal_GPIO_IRQHandler                      0x1fff3e09   Thumb Code    20  gpio.o(i.hal_GPIO_IRQHandler)
    hal_TIMER5_IRQHandler                    0x1fff3e21   Thumb Code    28  timer.o(i.hal_TIMER5_IRQHandler)
    hal_TIMER6_IRQHandler                    0x1fff3e45   Thumb Code    28  timer.o(i.hal_TIMER6_IRQHandler)
    hal_adc_init                             0x1fff3e69   Thumb Code    24  adc.o(i.hal_adc_init)
    hal_adc_stop                             0x1fff3e89   Thumb Code   152  adc.o(i.hal_adc_stop)
    hal_clk_gate_disable                     0x1fff3f85   Thumb Code    52  clock.o(i.hal_clk_gate_disable)
    hal_clk_gate_enable                      0x1fff3fb9   Thumb Code    52  clock.o(i.hal_clk_gate_enable)
    hal_clk_reset                            0x1fff3fed   Thumb Code   122  clock.o(i.hal_clk_reset)
    hal_flash_read                           0x1fff4069   Thumb Code   164  flash.o(i.hal_flash_read)
    hal_get_flash_info                       0x1fff4119   Thumb Code   188  flash.o(i.hal_get_flash_info)
    hal_gpio_cfg_analog_io                   0x1fff41e5   Thumb Code    44  gpio.o(i.hal_gpio_cfg_analog_io)
    hal_gpio_fmux                            0x1fff4215   Thumb Code    22  gpio.o(i.hal_gpio_fmux)
    hal_gpio_fmux_set                        0x1fff4231   Thumb Code    50  gpio.o(i.hal_gpio_fmux_set)
    hal_gpio_init                            0x1fff4269   Thumb Code    70  gpio.o(i.hal_gpio_init)
    hal_gpio_pin2pin3_control                0x1fff4305   Thumb Code    24  gpio.o(i.hal_gpio_pin2pin3_control)
    hal_gpio_pin_init                        0x1fff4321   Thumb Code    88  gpio.o(i.hal_gpio_pin_init)
    hal_gpio_pull_set                        0x1fff4381   Thumb Code    60  gpio.o(i.hal_gpio_pull_set)
    hal_gpio_read                            0x1fff43c5   Thumb Code    30  gpio.o(i.hal_gpio_read)
    hal_gpio_wakeup_set                      0x1fff4559   Thumb Code   104  gpio.o(i.hal_gpio_wakeup_set)
    hal_gpio_write                           0x1fff45d1   Thumb Code    30  gpio.o(i.hal_gpio_write)
    hal_gpioin_enable                        0x1fff45f5   Thumb Code    94  gpio.o(i.hal_gpioin_enable)
    hal_gpioretention_register               0x1fff46e5   Thumb Code    30  gpio.o(i.hal_gpioretention_register)
    hal_pwrmgr_LowCurrentLdo_enable          0x1fff4775   Thumb Code     4  pwrmgr.o(i.hal_pwrmgr_LowCurrentLdo_enable)
    hal_pwrmgr_RAM_retention                 0x1fff4779   Thumb Code    20  pwrmgr.o(i.hal_pwrmgr_RAM_retention)
    hal_pwrmgr_RAM_retention_clr             0x1fff4791   Thumb Code    16  pwrmgr.o(i.hal_pwrmgr_RAM_retention_clr)
    hal_pwrmgr_RAM_retention_set             0x1fff47a5   Thumb Code    24  pwrmgr.o(i.hal_pwrmgr_RAM_retention_set)
    hal_pwrmgr_init                          0x1fff47c5   Thumb Code    54  pwrmgr.o(i.hal_pwrmgr_init)
    hal_pwrmgr_lock                          0x1fff4811   Thumb Code    80  pwrmgr.o(i.hal_pwrmgr_lock)
    hal_pwrmgr_register                      0x1fff4869   Thumb Code    56  pwrmgr.o(i.hal_pwrmgr_register)
    hal_pwrmgr_sleep_process                 0x1fff48a5   Thumb Code    42  pwrmgr.o(i.hal_pwrmgr_sleep_process)
    hal_pwrmgr_unlock                        0x1fff48d5   Thumb Code    94  pwrmgr.o(i.hal_pwrmgr_unlock)
    hal_pwrmgr_wakeup_process                0x1fff493d   Thumb Code   102  pwrmgr.o(i.hal_pwrmgr_wakeup_process)
    hal_rom_boot_init                        0x1fff4a21   Thumb Code     8  patch.o(i.hal_rom_boot_init)
    hal_rtc_clock_config                     0x1fff4a29   Thumb Code   118  clock.o(i.hal_rtc_clock_config)
    hal_spif_cache_init                      0x1fff4aad   Thumb Code    26  flash.o(i.hal_spif_cache_init)
    hal_uart_init                            0x1fff4ad1   Thumb Code    88  uart.o(i.hal_uart_init)
    hal_uart_send_buff                       0x1fff4b35   Thumb Code    26  uart.o(i.hal_uart_send_buff)
    l2capPocessFragmentTxData                0x1fff4bd1   Thumb Code     2  patch.o(i.l2capPocessFragmentTxData)
    llConnTerminate1                         0x1fff4bd5   Thumb Code    64  patch.o(i.llConnTerminate1)
    llProcessTxData1                         0x1fff4c19   Thumb Code    12  patch.o(i.llProcessTxData1)
    ll_adptive_adj_next_time1                0x1fff4c25   Thumb Code   154  patch.o(i.ll_adptive_adj_next_time1)
    ll_generateTxBuffer1                     0x1fff4ce1   Thumb Code   410  patch.o(i.ll_generateTxBuffer1)
    ll_hw_go1                                0x1fff4e8d   Thumb Code   314  patch.o(i.ll_hw_go1)
    ll_processBasicIRQ_SRX                   0x1fff5029   Thumb Code    20  patch.o(i.ll_processBasicIRQ_SRX)
    ll_processBasicIRQ_ScanTRX               0x1fff5041   Thumb Code    20  patch.o(i.ll_processBasicIRQ_ScanTRX)
    ll_processBasicIRQ_secondaryAdvTRX       0x1fff5059   Thumb Code    20  patch.o(i.ll_processBasicIRQ_secondaryAdvTRX)
    ll_processBasicIRQ_secondaryInitSRX      0x1fff5071   Thumb Code    20  patch.o(i.ll_processBasicIRQ_secondaryInitSRX)
    ll_processBasicIRQ_secondaryScanSRX      0x1fff5089   Thumb Code    20  patch.o(i.ll_processBasicIRQ_secondaryScanSRX)
    main                                     0x1fff5309   Thumb Code    74  main.o(i.main)
    my_inti                                  0x1fff5361   Thumb Code    38  my.o(i.my_inti)
    osalInitTasks                            0x1fff54f1   Thumb Code    30  osal_phyrf.o(i.osalInitTasks)
    phy_hw_go                                0x1fff5515   Thumb Code   106  phy_rf.o(i.phy_hw_go)
    phy_hw_pktFmt_Config                     0x1fff55a5   Thumb Code    78  phy_rf.o(i.phy_hw_pktFmt_Config)
    phy_hw_set_stx                           0x1fff55f9   Thumb Code    18  phy_rf.o(i.phy_hw_set_stx)
    phy_hw_set_trx                           0x1fff560b   Thumb Code    22  phy_rf.o(i.phy_hw_set_trx)
    phy_hw_stop                              0x1fff5621   Thumb Code    36  phy_rf.o(i.phy_hw_stop)
    phy_hw_timing_setting                    0x1fff5649   Thumb Code    34  phy_rf.o(i.phy_hw_timing_setting)
    phy_rf_tx                                0x1fff566d   Thumb Code    90  phy_rf.o(i.phy_rf_tx)
    phy_set_channel                          0x1fff56f9   Thumb Code    54  phy_rf.o(i.phy_set_channel)
    phy_tx_buf_updata                        0x1fff5741   Thumb Code    42  phy_rf.o(i.phy_tx_buf_updata)
    qma7981_init                             0x1fff5771   Thumb Code   102  qma7981.o(i.qma7981_init)
    qma_read_reg                             0x1fff57d7   Thumb Code    64  qma7981.o(i.qma_read_reg)
    qma_read_regs                            0x1fff5817   Thumb Code    88  qma7981.o(i.qma_read_regs)
    qma_write_reg                            0x1fff586f   Thumb Code    46  qma7981.o(i.qma_write_reg)
    rc32k_calibration                        0x1fff589d   Thumb Code   112  rf_phy_driver.o(i.rc32k_calibration)
    rc32k_cap_cal                            0x1fff5911   Thumb Code    74  patch.o(i.rc32k_cap_cal)
    rf_calibrate1                            0x1fff5969   Thumb Code    32  rf_phy_driver.o(i.rf_calibrate1)
    rf_phy_ana_cfg                           0x1fff5999   Thumb Code   228  rf_phy_driver.o(i.rf_phy_ana_cfg)
    rf_phy_bb_cfg                            0x1fff5ab1   Thumb Code   304  rf_phy_driver.o(i.rf_phy_bb_cfg)
    rf_phy_change_cfg0                       0x1fff5c55   Thumb Code   138  rf_phy_driver.o(i.rf_phy_change_cfg0)
    rf_phy_get_pktFoot                       0x1fff5cfd   Thumb Code    42  rf_phy_driver.o(i.rf_phy_get_pktFoot)
    rf_phy_get_pktFoot_fromPkt               0x1fff5d2d   Thumb Code    38  rf_phy_driver.o(i.rf_phy_get_pktFoot_fromPkt)
    rf_phy_ini                               0x1fff5d55   Thumb Code    42  rf_phy_driver.o(i.rf_phy_ini)
    rf_phy_set_txPower                       0x1fff5d91   Thumb Code   108  rf_phy_driver.o(i.rf_phy_set_txPower)
    rf_rxDcoc_cfg                            0x1fff5e05   Thumb Code   236  rf_phy_driver.o(i.rf_rxDcoc_cfg)
    rf_tpCal_gen_cap_arrary                  0x1fff5f25   Thumb Code    60  rf_phy_driver.o(i.rf_tpCal_gen_cap_arrary)
    rf_tp_cal                                0x1fff5f71   Thumb Code   236  rf_phy_driver.o(i.rf_tp_cal)
    time_cb                                  0x1fff60ad   Thumb Code    62  my.o(i.time_cb)
    wakeupProcess1                           0x1fff6411   Thumb Code   392  patch.o(i.wakeupProcess1)
    wakeup_init1                             0x1fff65ed   Thumb Code   270  patch.o(i.wakeup_init1)
    tasksArr                                 0x1fff674c   Data           4  osal_phyrf.o(.constdata)
    tasksCnt                                 0x1fff6750   Data           1  osal_phyrf.o(.constdata)
    adc_base_addr                            0x1fff6754   Data          24  adc_demo.o(.constdata)
    c_gpio_index                             0x1fff6778   Data          23  gpio.o(.constdata)
    c_gpio_pull                              0x1fff678f   Data          69  gpio.o(.constdata)
    retention_reg                            0x1fff67d4   Data          46  gpio.o(.constdata)
    Region$$Table$$Base                      0x1fff6878   Number         0  anon$$obj.o(Region$$Table)
    Region$$Table$$Limit                     0x1fff68a8   Number         0  anon$$obj.o(Region$$Table)
    g_clk32K_config                          0x1fff68a8   Data           1  main.o(.data)
    phyCarrSens                              0x1fff68ac   Data           1  phy_rf.o(.data)
    phyRssi                                  0x1fff68ad   Data           1  phy_rf.o(.data)
    PhyRf_TaskID                             0x1fff68ae   Data           1  phy_rf.o(.data)
    phyFoff                                  0x1fff68b0   Data           2  phy_rf.o(.data)
    advHead                                  0x1fff68b2   Data           2  phy_rf.o(.data)
    PHY_ISR_entry_time                       0x1fff68b4   Data           4  phy_rf.o(.data)
    s_pubAddr                                0x1fff68b8   Data           6  phy_rf.o(.data)
    tasksEvents                              0x1fff68c0   Data           4  osal_phyrf.o(.data)
    s_pinmap                                 0x1fff68ca   Data           9  adc.o(.data)
    ble_data                                 0x1fff68d4   Data           1  my.o(.data)
    adc_data                                 0x1fff68d6   Data           2  my.o(.data)
    adc_data_yuan                            0x1fff68d8   Data           2  my.o(.data)
    _data                                    0x1fff68da   Data           3  my.o(.data)
    walk                                     0x1fff68e0   Data           4  my.o(.data)
    s_config_swClk1                          0x1fff68f0   Data           4  pwrmgr.o(.data)
    s_gpio_wakeup_src_group1                 0x1fff68f8   Data           4  pwrmgr.o(.data)
    s_gpio_wakeup_src_group2                 0x1fff68fc   Data           4  pwrmgr.o(.data)
    g_chipMAddr                              0x1fff6908   Data           7  flash.o(.data)
    phy_flash                                0x1fff6918   Data          12  flash.o(.data)
    trap_c_callback                          0x1fff6924   Data           4  jump_table.o(.data)
    SystemCoreClock                          0x1fff6928   Data           4  system_armcm0.o(.data)
    CreateConn_Flag                          0x1fff692c   Data           1  patch.o(.data)
    g_lastSlaveLatency                       0x1fff692e   Data           2  patch.o(.data)
    pGlobal_config                           0x1fff6930   Data           4  patch.o(.data)
    g_t_llhwgo                               0x1fff6934   Data           4  patch.o(.data)
    g_xtal16M_tmp                            0x1fff6938   Data           4  patch.o(.data)
    g_xtal96M_temp                           0x1fff693c   Data           4  patch.o(.data)
    DLL_enable_num                           0x1fff6940   Data           4  patch.o(.data)
    tracking_cnt                             0x1fff6944   Data           4  patch.o(.data)
    sleep_total                              0x1fff6948   Data           4  patch.o(.data)
    s_company_id                             0x1fff694c   Data           4  phy_sec_ext.o(.data)
    g_ota_sec_key_valid                      0x1fff6950   Data           1  phy_sec_ext.o(.data)
    pwroff_register_number                   0x1fff6952   Data           1  pwrmgr.o(_section_standby_code_)
    s_pwroff_cfg                             0x1fff6954   Data          12  pwrmgr.o(_section_standby_code_)
    g_largeHeap                              0x1fff6960   Data        1024  main.o(.bss)
    phyBufRx                                 0x1fff6d60   Data         256  phy_rf.o(.bss)
    phyBufTx                                 0x1fff6e60   Data         256  phy_rf.o(.bss)
    adv_buffer                               0x1fff6f60   Data          32  phy_rf.o(.bss)
    adc_buf                                  0x1fff6fcc   Data         128  adc_demo.o(.bss)
    g_ota_sec_key                            0x1fff7250   Data          16  phy_sec_ext.o(.bss)
    __initial_sp                             0x1fff7660   Data           0  startup_armcm0.o(STACK)



==============================================================================

Memory Map of the image

  Image Entry point : 0x1fff1841

  Load Region LR_IROM1 (Base: 0x1fff1838, Size: 0x00005128, Max: 0x00006000, ABSOLUTE)

    Execution Region ER_IROM1 (Exec base: 0x1fff1838, Load base: 0x1fff1838, Size: 0x00005e28, Max: 0x00006000, ABSOLUTE)

    Exec Addr    Load Addr    Size         Type   Attr      Idx    E Section Name        Object

    0x1fff1838   0x1fff1838   0x00000008   Data   RO         1789    RESET               startup_armcm0.o
    0x1fff1840   0x1fff1840   0x00000000   Code   RO         2114  * .ARM.Collect$$$$00000000  mc_p.l(entry.o)
    0x1fff1840   0x1fff1840   0x00000004   Code   RO         2147    .ARM.Collect$$$$00000001  mc_p.l(entry2.o)
    0x1fff1844   0x1fff1844   0x00000004   Code   RO         2150    .ARM.Collect$$$$00000004  mc_p.l(entry5.o)
    0x1fff1848   0x1fff1848   0x00000000   Code   RO         2152    .ARM.Collect$$$$00000008  mc_p.l(entry7b.o)
    0x1fff1848   0x1fff1848   0x00000000   Code   RO         2154    .ARM.Collect$$$$0000000A  mc_p.l(entry8b.o)
    0x1fff1848   0x1fff1848   0x00000008   Code   RO         2155    .ARM.Collect$$$$0000000B  mc_p.l(entry9a.o)
    0x1fff1850   0x1fff1850   0x00000004   Code   RO         2162    .ARM.Collect$$$$0000000E  mc_p.l(entry12b.o)
    0x1fff1854   0x1fff1854   0x00000000   Code   RO         2157    .ARM.Collect$$$$0000000F  mc_p.l(entry10a.o)
    0x1fff1854   0x1fff1854   0x00000000   Code   RO         2159    .ARM.Collect$$$$00000011  mc_p.l(entry11a.o)
    0x1fff1854   0x1fff1854   0x00000004   Code   RO         2148    .ARM.Collect$$$$00002712  mc_p.l(entry2.o)
    0x1fff1858   0x1fff1858   0x00000030   Code   RO         1756    .emb_text           jump_table.o
    0x1fff1888   0x1fff1888   0x00000014   Code   RO         1790    .text               startup_armcm0.o
    0x1fff189c   0x1fff189c   0x00000168   Code   RO         2125    .text               mf_p.l(dadd.o)
    0x1fff1a04   0x1fff1a04   0x000000d0   Code   RO         2127    .text               mf_p.l(dmul.o)
    0x1fff1ad4   0x1fff1ad4   0x000000f0   Code   RO         2129    .text               mf_p.l(ddiv.o)
    0x1fff1bc4   0x1fff1bc4   0x0000001c   Code   RO         2139    .text               mf_p.l(dfltui.o)
    0x1fff1be0   0x1fff1be0   0x0000003c   Code   RO         2141    .text               mf_p.l(dfixui.o)
    0x1fff1c1c   0x1fff1c1c   0x00000020   Code   RO         2163    .text               mc_p.l(llshl.o)
    0x1fff1c3c   0x1fff1c3c   0x00000022   Code   RO         2165    .text               mc_p.l(llushr.o)
    0x1fff1c5e   0x1fff1c5e   0x00000026   Code   RO         2167    .text               mc_p.l(llsshr.o)
    0x1fff1c84   0x1fff1c84   0x00000000   Code   RO         2169    .text               mc_p.l(iusefp.o)
    0x1fff1c84   0x1fff1c84   0x000000be   Code   RO         2172    .text               mf_p.l(depilogue.o)
    0x1fff1d42   0x1fff1d42   0x00000002   PAD
    0x1fff1d44   0x1fff1d44   0x00000024   Code   RO         2176    .text               mc_p.l(init.o)
    0x1fff1d68   0x1fff1d68   0x00000056   Code   RO         2186    .text               mc_p.l(__dczerorl2.o)
    0x1fff1dbe   0x1fff1dbe   0x00000002   PAD
    0x1fff1dc0   0x1fff1dc0   0x0000000c   Ven    RO         2188    Veneer$$Code        anon$$obj.o
    0x1fff1dcc   0x1fff1dcc   0x0000000c   Ven    RO         2189    Veneer$$Code        anon$$obj.o
    0x1fff1dd8   0x1fff1dd8   0x0000000c   Ven    RO         2190    Veneer$$Code        anon$$obj.o
    0x1fff1de4   0x1fff1de4   0x0000000c   Ven    RO         2191    Veneer$$Code        anon$$obj.o
    0x1fff1df0   0x1fff1df0   0x0000000c   Ven    RO         2192    Veneer$$Code        anon$$obj.o
    0x1fff1dfc   0x1fff1dfc   0x0000000c   Ven    RO         2193    Veneer$$Code        anon$$obj.o
    0x1fff1e08   0x1fff1e08   0x0000000c   Ven    RO         2194    Veneer$$Code        anon$$obj.o
    0x1fff1e14   0x1fff1e14   0x0000000c   Ven    RO         2195    Veneer$$Code        anon$$obj.o
    0x1fff1e20   0x1fff1e20   0x0000000c   Ven    RO         2196    Veneer$$Code        anon$$obj.o
    0x1fff1e2c   0x1fff1e2c   0x0000000c   Ven    RO         2197    Veneer$$Code        anon$$obj.o
    0x1fff1e38   0x1fff1e38   0x0000000c   Ven    RO         2198    Veneer$$Code        anon$$obj.o
    0x1fff1e44   0x1fff1e44   0x0000000c   Ven    RO         2199    Veneer$$Code        anon$$obj.o
    0x1fff1e50   0x1fff1e50   0x0000000c   Ven    RO         2200    Veneer$$Code        anon$$obj.o
    0x1fff1e5c   0x1fff1e5c   0x0000000c   Ven    RO         2201    Veneer$$Code        anon$$obj.o
    0x1fff1e68   0x1fff1e68   0x0000000c   Ven    RO         2202    Veneer$$Code        anon$$obj.o
    0x1fff1e74   0x1fff1e74   0x0000000c   Ven    RO         2203    Veneer$$Code        anon$$obj.o
    0x1fff1e80   0x1fff1e80   0x0000000c   Ven    RO         2204    Veneer$$Code        anon$$obj.o
    0x1fff1e8c   0x1fff1e8c   0x0000000c   Ven    RO         2205    Veneer$$Code        anon$$obj.o
    0x1fff1e98   0x1fff1e98   0x0000000c   Ven    RO         2206    Veneer$$Code        anon$$obj.o
    0x1fff1ea4   0x1fff1ea4   0x0000000c   Ven    RO         2207    Veneer$$Code        anon$$obj.o
    0x1fff1eb0   0x1fff1eb0   0x0000000c   Ven    RO         2208    Veneer$$Code        anon$$obj.o
    0x1fff1ebc   0x1fff1ebc   0x0000000c   Ven    RO         2209    Veneer$$Code        anon$$obj.o
    0x1fff1ec8   0x1fff1ec8   0x0000000c   Ven    RO         2210    Veneer$$Code        anon$$obj.o
    0x1fff1ed4   0x1fff1ed4   0x0000000c   Ven    RO         2211    Veneer$$Code        anon$$obj.o
    0x1fff1ee0   0x1fff1ee0   0x0000000c   Ven    RO         2212    Veneer$$Code        anon$$obj.o
    0x1fff1eec   0x1fff1eec   0x0000000c   Ven    RO         2213    Veneer$$Code        anon$$obj.o
    0x1fff1ef8   0x1fff1ef8   0x0000000c   Ven    RO         2214    Veneer$$Code        anon$$obj.o
    0x1fff1f04   0x1fff1f04   0x0000000c   Ven    RO         2215    Veneer$$Code        anon$$obj.o
    0x1fff1f10   0x1fff1f10   0x0000000c   Ven    RO         2216    Veneer$$Code        anon$$obj.o
    0x1fff1f1c   0x1fff1f1c   0x0000000c   Ven    RO         2217    Veneer$$Code        anon$$obj.o
    0x1fff1f28   0x1fff1f28   0x0000000c   Ven    RO         2218    Veneer$$Code        anon$$obj.o
    0x1fff1f34   0x1fff1f34   0x0000000c   Ven    RO         2219    Veneer$$Code        anon$$obj.o
    0x1fff1f40   0x1fff1f40   0x0000000c   Ven    RO         2220    Veneer$$Code        anon$$obj.o
    0x1fff1f4c   0x1fff1f4c   0x0000000c   Ven    RO         2221    Veneer$$Code        anon$$obj.o
    0x1fff1f58   0x1fff1f58   0x0000000c   Ven    RO         2222    Veneer$$Code        anon$$obj.o
    0x1fff1f64   0x1fff1f64   0x0000000c   Ven    RO         2223    Veneer$$Code        anon$$obj.o
    0x1fff1f70   0x1fff1f70   0x0000000c   Ven    RO         2224    Veneer$$Code        anon$$obj.o
    0x1fff1f7c   0x1fff1f7c   0x0000000c   Ven    RO         2225    Veneer$$Code        anon$$obj.o
    0x1fff1f88   0x1fff1f88   0x0000000c   Ven    RO         2226    Veneer$$Code        anon$$obj.o
    0x1fff1f94   0x1fff1f94   0x0000000c   Ven    RO         2227    Veneer$$Code        anon$$obj.o
    0x1fff1fa0   0x1fff1fa0   0x0000000c   Ven    RO         2228    Veneer$$Code        anon$$obj.o
    0x1fff1fac   0x1fff1fac   0x0000000c   Ven    RO         2229    Veneer$$Code        anon$$obj.o
    0x1fff1fb8   0x1fff1fb8   0x0000000c   Ven    RO         2230    Veneer$$Code        anon$$obj.o
    0x1fff1fc4   0x1fff1fc4   0x0000000c   Ven    RO         2231    Veneer$$Code        anon$$obj.o
    0x1fff1fd0   0x1fff1fd0   0x0000000c   Ven    RO         2232    Veneer$$Code        anon$$obj.o
    0x1fff1fdc   0x1fff1fdc   0x0000000c   Ven    RO         2233    Veneer$$Code        anon$$obj.o
    0x1fff1fe8   0x1fff1fe8   0x0000000c   Ven    RO         2234    Veneer$$Code        anon$$obj.o
    0x1fff1ff4   0x1fff1ff4   0x0000000c   Ven    RO         2235    Veneer$$Code        anon$$obj.o
    0x1fff2000   0x1fff2000   0x0000000c   Ven    RO         2236    Veneer$$Code        anon$$obj.o
    0x1fff200c   0x1fff200c   0x0000000c   Ven    RO         2237    Veneer$$Code        anon$$obj.o
    0x1fff2018   0x1fff2018   0x0000000c   Ven    RO         2238    Veneer$$Code        anon$$obj.o
    0x1fff2024   0x1fff2024   0x0000000c   Ven    RO         2239    Veneer$$Code        anon$$obj.o
    0x1fff2030   0x1fff2030   0x0000000c   Ven    RO         2240    Veneer$$Code        anon$$obj.o
    0x1fff203c   0x1fff203c   0x0000000c   Ven    RO         2241    Veneer$$Code        anon$$obj.o
    0x1fff2048   0x1fff2048   0x0000000c   Ven    RO         2242    Veneer$$Code        anon$$obj.o
    0x1fff2054   0x1fff2054   0x0000000c   Ven    RO         2243    Veneer$$Code        anon$$obj.o
    0x1fff2060   0x1fff2060   0x0000000c   Ven    RO         2244    Veneer$$Code        anon$$obj.o
    0x1fff206c   0x1fff206c   0x0000000c   Ven    RO         2245    Veneer$$Code        anon$$obj.o
    0x1fff2078   0x1fff2078   0x0000000c   Ven    RO         2246    Veneer$$Code        anon$$obj.o
    0x1fff2084   0x1fff2084   0x0000000c   Ven    RO         2247    Veneer$$Code        anon$$obj.o
    0x1fff2090   0x1fff2090   0x0000000c   Ven    RO         2248    Veneer$$Code        anon$$obj.o
    0x1fff209c   0x1fff209c   0x0000000c   Ven    RO         2249    Veneer$$Code        anon$$obj.o
    0x1fff20a8   0x1fff20a8   0x0000000c   Ven    RO         2250    Veneer$$Code        anon$$obj.o
    0x1fff20b4   0x1fff20b4   0x0000000c   Ven    RO         2251    Veneer$$Code        anon$$obj.o
    0x1fff20c0   0x1fff20c0   0x0000000c   Ven    RO         2252    Veneer$$Code        anon$$obj.o
    0x1fff20cc   0x1fff20cc   0x0000000c   Ven    RO         2253    Veneer$$Code        anon$$obj.o
    0x1fff20d8   0x1fff20d8   0x0000000c   Ven    RO         2254    Veneer$$Code        anon$$obj.o
    0x1fff20e4   0x1fff20e4   0x0000000c   Ven    RO         2255    Veneer$$Code        anon$$obj.o
    0x1fff20f0   0x1fff20f0   0x0000000c   Ven    RO         2256    Veneer$$Code        anon$$obj.o
    0x1fff20fc   0x1fff20fc   0x0000000c   Ven    RO         2257    Veneer$$Code        anon$$obj.o
    0x1fff2108   0x1fff2108   0x0000000c   Ven    RO         2258    Veneer$$Code        anon$$obj.o
    0x1fff2114   0x1fff2114   0x0000000c   Ven    RO         2259    Veneer$$Code        anon$$obj.o
    0x1fff2120   0x1fff2120   0x0000000c   Ven    RO         2260    Veneer$$Code        anon$$obj.o
    0x1fff212c   0x1fff212c   0x0000000c   Ven    RO         2261    Veneer$$Code        anon$$obj.o
    0x1fff2138   0x1fff2138   0x0000000c   Ven    RO         2262    Veneer$$Code        anon$$obj.o
    0x1fff2144   0x1fff2144   0x0000000c   Ven    RO         2263    Veneer$$Code        anon$$obj.o
    0x1fff2150   0x1fff2150   0x0000000c   Ven    RO         2264    Veneer$$Code        anon$$obj.o
    0x1fff215c   0x1fff215c   0x0000000c   Ven    RO         2265    Veneer$$Code        anon$$obj.o
    0x1fff2168   0x1fff2168   0x0000000c   Ven    RO         2266    Veneer$$Code        anon$$obj.o
    0x1fff2174   0x1fff2174   0x0000000c   Ven    RO         2267    Veneer$$Code        anon$$obj.o
    0x1fff2180   0x1fff2180   0x0000000c   Ven    RO         2268    Veneer$$Code        anon$$obj.o
    0x1fff218c   0x1fff218c   0x0000000c   Ven    RO         2269    Veneer$$Code        anon$$obj.o
    0x1fff2198   0x1fff2198   0x0000000c   Ven    RO         2270    Veneer$$Code        anon$$obj.o
    0x1fff21a4   0x1fff21a4   0x0000000c   Ven    RO         2271    Veneer$$Code        anon$$obj.o
    0x1fff21b0   0x1fff21b0   0x0000000c   Ven    RO         2272    Veneer$$Code        anon$$obj.o
    0x1fff21bc   0x1fff21bc   0x0000000c   Ven    RO         2273    Veneer$$Code        anon$$obj.o
    0x1fff21c8   0x1fff21c8   0x0000000c   Ven    RO         2274    Veneer$$Code        anon$$obj.o
    0x1fff21d4   0x1fff21d4   0x0000000c   Ven    RO         2275    Veneer$$Code        anon$$obj.o
    0x1fff21e0   0x1fff21e0   0x0000000c   Ven    RO         2276    Veneer$$Code        anon$$obj.o
    0x1fff21ec   0x1fff21ec   0x0000000c   Ven    RO         2277    Veneer$$Code        anon$$obj.o
    0x1fff21f8   0x1fff21f8   0x0000000c   Ven    RO         2278    Veneer$$Code        anon$$obj.o
    0x1fff2204   0x1fff2204   0x0000000c   Ven    RO         2279    Veneer$$Code        anon$$obj.o
    0x1fff2210   0x1fff2210   0x0000000c   Ven    RO         2280    Veneer$$Code        anon$$obj.o
    0x1fff221c   0x1fff221c   0x0000000c   Ven    RO         2281    Veneer$$Code        anon$$obj.o
    0x1fff2228   0x1fff2228   0x00000158   Code   RO          653    _section_sram_code_  uart.o
    0x1fff2380   0x1fff2380   0x00000040   Code   RO         1119    _section_sram_code_  pwrmgr.o
    0x1fff23c0   0x1fff23c0   0x00000038   Code   RO         1303    _section_sram_code_  flash.o
    0x1fff23f8   0x1fff23f8   0x000003f8   Code   RO         1834    _section_xip_code_  rf.lib(patch.o)
    0x1fff27f0   0x1fff27f0   0x00000034   Code   RO         1616    i.IIC_Ack           iic_1.o
    0x1fff2824   0x1fff2824   0x00000034   Code   RO         1617    i.IIC_NAck          iic_1.o
    0x1fff2858   0x1fff2858   0x00000044   Code   RO         1618    i.IIC_Read_Byte     iic_1.o
    0x1fff289c   0x1fff289c   0x00000052   Code   RO         1619    i.IIC_Send_Byte     iic_1.o
    0x1fff28ee   0x1fff28ee   0x00000034   Code   RO         1620    i.IIC_Start         iic_1.o
    0x1fff2922   0x1fff2922   0x0000002c   Code   RO         1621    i.IIC_Stop          iic_1.o
    0x1fff294e   0x1fff294e   0x00000002   PAD
    0x1fff2950   0x1fff2950   0x00000054   Code   RO         1622    i.IIC_Wait_Ack      iic_1.o
    0x1fff29a4   0x1fff29a4   0x00000036   Code   RO          554    i.InsertSort        adc_demo.o
    0x1fff29da   0x1fff29da   0x0000001a   Code   RO         1841    i.LL_ENC_AES128_Encrypt1  rf.lib(patch.o)
    0x1fff29f4   0x1fff29f4   0x00000178   Code   RO         1842    i.LL_ENC_Decrypt1   rf.lib(patch.o)
    0x1fff2b6c   0x1fff2b6c   0x00000160   Code   RO         1843    i.LL_ENC_Encrypt1   rf.lib(patch.o)
    0x1fff2ccc   0x1fff2ccc   0x00000180   Code   RO         1846    i.LL_IRQHandler1    rf.lib(patch.o)
    0x1fff2e4c   0x1fff2e4c   0x00000030   Code   RO         1853    i.LL_SetDataLengh1  rf.lib(patch.o)
    0x1fff2e7c   0x1fff2e7c   0x00000014   Code   RO         1857    i.LL_set_default_conn_params1  rf.lib(patch.o)
    0x1fff2e90   0x1fff2e90   0x00000014   Code   RO         1859    i.NVIC_EnableIRQ    rf.lib(patch.o)
    0x1fff2ea4   0x1fff2ea4   0x0000010c   Code   RO          201    i.PLUSPHY_IRQHandler  phy_rf.o
    0x1fff2fb0   0x1fff2fb0   0x0000011c   Code   RO          202    i.PhyRf_Init        phy_rf.o
    0x1fff30cc   0x1fff30cc   0x00000090   Code   RO          203    i.PhyRf_ProcessEvent  phy_rf.o
    0x1fff315c   0x1fff315c   0x00000014   Code   RO         1623    i.SDA_IN            iic_1.o
    0x1fff3170   0x1fff3170   0x0000000c   Code   RO         1624    i.SDA_OUT           iic_1.o
    0x1fff317c   0x1fff317c   0x00000010   Code   RO         1797    i.SystemInit        system_armcm0.o
    0x1fff318c   0x1fff318c   0x00000012   Code   RO          743    i.WaitMs            clock.o
    0x1fff319e   0x1fff319e   0x00000002   PAD
    0x1fff31a0   0x1fff31a0   0x0000002c   Code   RO          744    i.WaitUs            clock.o
    0x1fff31cc   0x1fff31cc   0x0000002e   Code   RO         2174    i.__ARM_clz         mf_p.l(depilogue.o)
    0x1fff31fa   0x1fff31fa   0x00000002   PAD
    0x1fff31fc   0x1fff31fc   0x00000018   Code   RO          829    i.__NVIC_EnableIRQ  gpio.o
    0x1fff3214   0x1fff3214   0x00000044   Code   RO            3    i.__NVIC_SetPriority  main.o
    0x1fff3258   0x1fff3258   0x00000044   Code   RO          830    i.__NVIC_SetPriority  gpio.o
    0x1fff329c   0x1fff329c   0x00000044   Code   RO         1121    i.__NVIC_SetPriority  pwrmgr.o
    0x1fff32e0   0x1fff32e0   0x0000000e   Code   RO         2180    i.__scatterload_copy  mc_p.l(handlers.o)
    0x1fff32ee   0x1fff32ee   0x00000002   Code   RO         2181    i.__scatterload_null  mc_p.l(handlers.o)
    0x1fff32f0   0x1fff32f0   0x0000000e   Code   RO         2182    i.__scatterload_zeroinit  mc_p.l(handlers.o)
    0x1fff32fe   0x1fff32fe   0x00000002   PAD
    0x1fff3300   0x1fff3300   0x00000010   Code   RO         1860    i.__wdt_init        rf.lib(patch.o)
    0x1fff3310   0x1fff3310   0x00000020   Code   RO         2057    i._efuse_chip_version_check  rf.lib(phy_sec_ext.o)
    0x1fff3330   0x1fff3330   0x000001e8   Code   RO         1757    i._hard_fault       jump_table.o
    0x1fff3518   0x1fff3518   0x0000001c   Code   RO         2058    i._rom_sec_boot_init  rf.lib(phy_sec_ext.o)
    0x1fff3534   0x1fff3534   0x00000068   Code   RO         1305    i._spif_wait_nobusy_x  flash.o
    0x1fff359c   0x1fff359c   0x0000000e   Code   RO         1244    i._uart_putc        my_printf.o
    0x1fff35aa   0x1fff35aa   0x00000002   PAD
    0x1fff35ac   0x1fff35ac   0x00000090   Code   RO          555    i.adcMeasureCh      adc_demo.o
    0x1fff363c   0x1fff363c   0x000001c0   Code   RO          419    i.adc_init_r        adc.o
    0x1fff37fc   0x1fff37fc   0x0000000c   Code   RO          420    i.adc_stop_r        adc.o
    0x1fff3808   0x1fff3808   0x00000018   Code   RO          421    i.adc_wakeup_hdl    adc.o
    0x1fff3820   0x1fff3820   0x00000014   Code   RO          204    i.app_main          phy_rf.o
    0x1fff3834   0x1fff3834   0x0000003c   Code   RO          606    i.change_adv_buffer  my.o
    0x1fff3870   0x1fff3870   0x00000154   Code   RO         1861    i.check_16MXtal_by_rcTracking  rf.lib(patch.o)
    0x1fff39c4   0x1fff39c4   0x00000110   Code   RO         1862    i.check_96MXtal_by_rcTracking  rf.lib(patch.o)
    0x1fff3ad4   0x1fff3ad4   0x00000010   Code   RO          422    i.clear_adcc_cfg    adc.o
    0x1fff3ae4   0x1fff3ae4   0x00000090   Code   RO         1864    i.config_RTC1       rf.lib(patch.o)
    0x1fff3b74   0x1fff3b74   0x0000001c   Code   RO         1245    i.dbg_printf        my_printf.o
    0x1fff3b90   0x1fff3b90   0x00000014   Code   RO         1246    i.dbg_printf_init   my_printf.o
    0x1fff3ba4   0x1fff3ba4   0x00000008   Code   RO         1625    i.delay_ms          iic_1.o
    0x1fff3bac   0x1fff3bac   0x0000000a   Code   RO         1626    i.delay_us          iic_1.o
    0x1fff3bb6   0x1fff3bb6   0x00000002   PAD
    0x1fff3bb8   0x1fff3bb8   0x00000018   Code   RO         2059    i.efuse_init        rf.lib(phy_sec_ext.o)
    0x1fff3bd0   0x1fff3bd0   0x0000002c   Code   RO         1866    i.enterSleepProcess1  rf.lib(patch.o)
    0x1fff3bfc   0x1fff3bfc   0x0000008c   Code   RO         2060    i.finidv            rf.lib(phy_sec_ext.o)
    0x1fff3c88   0x1fff3c88   0x000000b8   Code   RO          557    i.get_adc           adc_demo.o
    0x1fff3d40   0x1fff3d40   0x000000c8   Code   RO          423    i.hal_ADC_IRQHandler  adc.o
    0x1fff3e08   0x1fff3e08   0x00000018   Code   RO          831    i.hal_GPIO_IRQHandler  gpio.o
    0x1fff3e20   0x1fff3e20   0x00000024   Code   RO         1023    i.hal_TIMER5_IRQHandler  timer.o
    0x1fff3e44   0x1fff3e44   0x00000024   Code   RO         1024    i.hal_TIMER6_IRQHandler  timer.o
    0x1fff3e68   0x1fff3e68   0x00000020   Code   RO          426    i.hal_adc_init      adc.o
    0x1fff3e88   0x1fff3e88   0x000000b4   Code   RO          428    i.hal_adc_stop      adc.o
    0x1fff3f3c   0x1fff3f3c   0x00000048   Code   RO         1308    i.hal_cache_tag_flush  flash.o
    0x1fff3f84   0x1fff3f84   0x00000034   Code   RO          745    i.hal_clk_gate_disable  clock.o
    0x1fff3fb8   0x1fff3fb8   0x00000034   Code   RO          746    i.hal_clk_gate_enable  clock.o
    0x1fff3fec   0x1fff3fec   0x0000007a   Code   RO          749    i.hal_clk_reset     clock.o
    0x1fff4066   0x1fff4066   0x00000002   PAD
    0x1fff4068   0x1fff4068   0x000000b0   Code   RO         1312    i.hal_flash_read    flash.o
    0x1fff4118   0x1fff4118   0x000000cc   Code   RO         1315    i.hal_get_flash_info  flash.o
    0x1fff41e4   0x1fff41e4   0x00000030   Code   RO          832    i.hal_gpio_cfg_analog_io  gpio.o
    0x1fff4214   0x1fff4214   0x0000001c   Code   RO          836    i.hal_gpio_fmux     gpio.o
    0x1fff4230   0x1fff4230   0x00000038   Code   RO          837    i.hal_gpio_fmux_set  gpio.o
    0x1fff4268   0x1fff4268   0x0000005c   Code   RO          838    i.hal_gpio_init     gpio.o
    0x1fff42c4   0x1fff42c4   0x00000040   Code   RO          839    i.hal_gpio_interrupt_enable  gpio.o
    0x1fff4304   0x1fff4304   0x0000001c   Code   RO          840    i.hal_gpio_pin2pin3_control  gpio.o
    0x1fff4320   0x1fff4320   0x00000060   Code   RO          841    i.hal_gpio_pin_init  gpio.o
    0x1fff4380   0x1fff4380   0x00000044   Code   RO          842    i.hal_gpio_pull_set  gpio.o
    0x1fff43c4   0x1fff43c4   0x00000024   Code   RO          843    i.hal_gpio_read     gpio.o
    0x1fff43e8   0x1fff43e8   0x0000005c   Code   RO          844    i.hal_gpio_retention_enable  gpio.o
    0x1fff4444   0x1fff4444   0x00000048   Code   RO          845    i.hal_gpio_sleep_handler  gpio.o
    0x1fff448c   0x1fff448c   0x00000044   Code   RO          846    i.hal_gpio_wakeup_control  gpio.o
    0x1fff44d0   0x1fff44d0   0x00000088   Code   RO          847    i.hal_gpio_wakeup_handler  gpio.o
    0x1fff4558   0x1fff4558   0x00000078   Code   RO          848    i.hal_gpio_wakeup_set  gpio.o
    0x1fff45d0   0x1fff45d0   0x00000024   Code   RO          849    i.hal_gpio_write    gpio.o
    0x1fff45f4   0x1fff45f4   0x00000064   Code   RO          851    i.hal_gpioin_enable  gpio.o
    0x1fff4658   0x1fff4658   0x00000068   Code   RO          852    i.hal_gpioin_event  gpio.o
    0x1fff46c0   0x1fff46c0   0x00000024   Code   RO          853    i.hal_gpioin_event_pin  gpio.o
    0x1fff46e4   0x1fff46e4   0x00000024   Code   RO          857    i.hal_gpioretention_register  gpio.o
    0x1fff4708   0x1fff4708   0x0000006c   Code   RO            4    i.hal_low_power_io_init  main.o
    0x1fff4774   0x1fff4774   0x00000004   Code   RO         1123    i.hal_pwrmgr_LowCurrentLdo_enable  pwrmgr.o
    0x1fff4778   0x1fff4778   0x00000018   Code   RO         1124    i.hal_pwrmgr_RAM_retention  pwrmgr.o
    0x1fff4790   0x1fff4790   0x00000014   Code   RO         1125    i.hal_pwrmgr_RAM_retention_clr  pwrmgr.o
    0x1fff47a4   0x1fff47a4   0x00000020   Code   RO         1126    i.hal_pwrmgr_RAM_retention_set  pwrmgr.o
    0x1fff47c4   0x1fff47c4   0x0000004c   Code   RO         1128    i.hal_pwrmgr_init   pwrmgr.o
    0x1fff4810   0x1fff4810   0x00000058   Code   RO         1130    i.hal_pwrmgr_lock   pwrmgr.o
    0x1fff4868   0x1fff4868   0x0000003c   Code   RO         1132    i.hal_pwrmgr_register  pwrmgr.o
    0x1fff48a4   0x1fff48a4   0x00000030   Code   RO         1133    i.hal_pwrmgr_sleep_process  pwrmgr.o
    0x1fff48d4   0x1fff48d4   0x00000068   Code   RO         1134    i.hal_pwrmgr_unlock  pwrmgr.o
    0x1fff493c   0x1fff493c   0x00000074   Code   RO         1136    i.hal_pwrmgr_wakeup_process  pwrmgr.o
    0x1fff49b0   0x1fff49b0   0x00000070   Code   RO            5    i.hal_rfphy_init    main.o
    0x1fff4a20   0x1fff4a20   0x00000008   Code   RO         1868    i.hal_rom_boot_init  rf.lib(patch.o)
    0x1fff4a28   0x1fff4a28   0x00000084   Code   RO          751    i.hal_rtc_clock_config  clock.o
    0x1fff4aac   0x1fff4aac   0x00000024   Code   RO         1316    i.hal_spif_cache_init  flash.o
    0x1fff4ad0   0x1fff4ad0   0x00000064   Code   RO          656    i.hal_uart_init     uart.o
    0x1fff4b34   0x1fff4b34   0x00000020   Code   RO          657    i.hal_uart_send_buff  uart.o
    0x1fff4b54   0x1fff4b54   0x0000007c   Code   RO         1317    i.hw_spif_cache_config  flash.o
    0x1fff4bd0   0x1fff4bd0   0x00000002   Code   RO         1869    i.l2capPocessFragmentTxData  rf.lib(patch.o)
    0x1fff4bd2   0x1fff4bd2   0x00000002   PAD
    0x1fff4bd4   0x1fff4bd4   0x00000044   Code   RO         1872    i.llConnTerminate1  rf.lib(patch.o)
    0x1fff4c18   0x1fff4c18   0x0000000c   Code   RO         1876    i.llProcessTxData1  rf.lib(patch.o)
    0x1fff4c24   0x1fff4c24   0x000000bc   Code   RO         1882    i.ll_adptive_adj_next_time1  rf.lib(patch.o)
    0x1fff4ce0   0x1fff4ce0   0x000001ac   Code   RO         1883    i.ll_generateTxBuffer1  rf.lib(patch.o)
    0x1fff4e8c   0x1fff4e8c   0x0000019c   Code   RO         1884    i.ll_hw_go1         rf.lib(patch.o)
    0x1fff5028   0x1fff5028   0x00000018   Code   RO         1889    i.ll_processBasicIRQ_SRX  rf.lib(patch.o)
    0x1fff5040   0x1fff5040   0x00000018   Code   RO         1891    i.ll_processBasicIRQ_ScanTRX  rf.lib(patch.o)
    0x1fff5058   0x1fff5058   0x00000018   Code   RO         1893    i.ll_processBasicIRQ_secondaryAdvTRX  rf.lib(patch.o)
    0x1fff5070   0x1fff5070   0x00000018   Code   RO         1895    i.ll_processBasicIRQ_secondaryInitSRX  rf.lib(patch.o)
    0x1fff5088   0x1fff5088   0x00000018   Code   RO         1897    i.ll_processBasicIRQ_secondaryScanSRX  rf.lib(patch.o)
    0x1fff50a0   0x1fff50a0   0x00000268   Code   RO         1247    i.log_vsprintf      my_printf.o
    0x1fff5308   0x1fff5308   0x00000058   Code   RO            6    i.main              main.o
    0x1fff5360   0x1fff5360   0x00000026   Code   RO          607    i.my_inti           my.o
    0x1fff5386   0x1fff5386   0x00000002   PAD
    0x1fff5388   0x1fff5388   0x00000168   Code   RO         1249    i.number            my_printf.o
    0x1fff54f0   0x1fff54f0   0x00000024   Code   RO          347    i.osalInitTasks     osal_phyrf.o
    0x1fff5514   0x1fff5514   0x00000090   Code   RO          205    i.phy_hw_go         phy_rf.o
    0x1fff55a4   0x1fff55a4   0x00000054   Code   RO          206    i.phy_hw_pktFmt_Config  phy_rf.o
    0x1fff55f8   0x1fff55f8   0x00000012   Code   RO          208    i.phy_hw_set_stx    phy_rf.o
    0x1fff560a   0x1fff560a   0x00000016   Code   RO          209    i.phy_hw_set_trx    phy_rf.o
    0x1fff5620   0x1fff5620   0x00000028   Code   RO          210    i.phy_hw_stop       phy_rf.o
    0x1fff5648   0x1fff5648   0x00000022   Code   RO          211    i.phy_hw_timing_setting  phy_rf.o
    0x1fff566a   0x1fff566a   0x00000002   PAD
    0x1fff566c   0x1fff566c   0x00000068   Code   RO          213    i.phy_rf_tx         phy_rf.o
    0x1fff56d4   0x1fff56d4   0x00000024   Code   RO          214    i.phy_rx_data_check  phy_rf.o
    0x1fff56f8   0x1fff56f8   0x00000048   Code   RO          216    i.phy_set_channel   phy_rf.o
    0x1fff5740   0x1fff5740   0x00000030   Code   RO          217    i.phy_tx_buf_updata  phy_rf.o
    0x1fff5770   0x1fff5770   0x00000066   Code   RO         1701    i.qma7981_init      qma7981.o
    0x1fff57d6   0x1fff57d6   0x00000040   Code   RO         1703    i.qma_read_reg      qma7981.o
    0x1fff5816   0x1fff5816   0x00000058   Code   RO         1704    i.qma_read_regs     qma7981.o
    0x1fff586e   0x1fff586e   0x0000002e   Code   RO         1705    i.qma_write_reg     qma7981.o
    0x1fff589c   0x1fff589c   0x00000074   Code   RO         1994    i.rc32k_calibration  rf.lib(rf_phy_driver.o)
    0x1fff5910   0x1fff5910   0x00000058   Code   RO         1903    i.rc32k_cap_cal     rf.lib(patch.o)
    0x1fff5968   0x1fff5968   0x00000030   Code   RO         1995    i.rf_calibrate1     rf.lib(rf_phy_driver.o)
    0x1fff5998   0x1fff5998   0x00000118   Code   RO         1996    i.rf_phy_ana_cfg    rf.lib(rf_phy_driver.o)
    0x1fff5ab0   0x1fff5ab0   0x000001a4   Code   RO         1997    i.rf_phy_bb_cfg     rf.lib(rf_phy_driver.o)
    0x1fff5c54   0x1fff5c54   0x000000a8   Code   RO         1998    i.rf_phy_change_cfg0  rf.lib(rf_phy_driver.o)
    0x1fff5cfc   0x1fff5cfc   0x00000030   Code   RO         2012    i.rf_phy_get_pktFoot  rf.lib(rf_phy_driver.o)
    0x1fff5d2c   0x1fff5d2c   0x00000026   Code   RO         2013    i.rf_phy_get_pktFoot_fromPkt  rf.lib(rf_phy_driver.o)
    0x1fff5d52   0x1fff5d52   0x00000002   PAD
    0x1fff5d54   0x1fff5d54   0x0000003c   Code   RO         2014    i.rf_phy_ini        rf.lib(rf_phy_driver.o)
    0x1fff5d90   0x1fff5d90   0x00000074   Code   RO         2015    i.rf_phy_set_txPower  rf.lib(rf_phy_driver.o)
    0x1fff5e04   0x1fff5e04   0x00000120   Code   RO         2016    i.rf_rxDcoc_cfg     rf.lib(rf_phy_driver.o)
    0x1fff5f24   0x1fff5f24   0x0000004c   Code   RO         2019    i.rf_tpCal_gen_cap_arrary  rf.lib(rf_phy_driver.o)
    0x1fff5f70   0x1fff5f70   0x0000011c   Code   RO         2020    i.rf_tp_cal         rf.lib(rf_phy_driver.o)
    0x1fff608c   0x1fff608c   0x00000020   Code   RO         1250    i.skip_atoi         my_printf.o
    0x1fff60ac   0x1fff60ac   0x00000050   Code   RO          608    i.time_cb           my.o
    0x1fff60fc   0x1fff60fc   0x0000006c   Code   RO          660    i.txmit_buf_polling  uart.o
    0x1fff6168   0x1fff6168   0x000000bc   Code   RO          661    i.txmit_buf_use_tx_buf  uart.o
    0x1fff6224   0x1fff6224   0x00000080   Code   RO          662    i.uart_hw_deinit    uart.o
    0x1fff62a4   0x1fff62a4   0x00000158   Code   RO          663    i.uart_hw_init      uart.o
    0x1fff63fc   0x1fff63fc   0x0000000a   Code   RO          664    i.uart_wakeup_process_0  uart.o
    0x1fff6406   0x1fff6406   0x0000000a   Code   RO          665    i.uart_wakeup_process_1  uart.o
    0x1fff6410   0x1fff6410   0x000001dc   Code   RO         1906    i.wakeupProcess1    rf.lib(patch.o)
    0x1fff65ec   0x1fff65ec   0x00000140   Code   RO         1907    i.wakeup_init1      rf.lib(patch.o)
    0x1fff672c   0x1fff672c   0x0000001e   Data   RO            8    .constdata          main.o
    0x1fff674a   0x1fff674a   0x00000002   PAD
    0x1fff674c   0x1fff674c   0x00000004   Data   RO          348    .constdata          osal_phyrf.o
    0x1fff6750   0x1fff6750   0x00000001   Data   RO          349    .constdata          osal_phyrf.o
    0x1fff6751   0x1fff6751   0x00000003   PAD
    0x1fff6754   0x1fff6754   0x00000018   Data   RO          562    .constdata          adc_demo.o
    0x1fff676c   0x1fff676c   0x0000000c   Data   RO          667    .constdata          uart.o
    0x1fff6778   0x1fff6778   0x0000008a   Data   RO          860    .constdata          gpio.o
    0x1fff6802   0x1fff6802   0x00000002   PAD
    0x1fff6804   0x1fff6804   0x00000010   Data   RO         1251    .constdata          my_printf.o
    0x1fff6814   0x1fff6814   0x0000004d   Data   RO         1252    .conststring        my_printf.o
    0x1fff6861   0x1fff6861   0x00000003   PAD
    0x1fff6864   0x1fff6864   0x00000011   Data   RO         2064    .conststring        rf.lib(phy_sec_ext.o)
    0x1fff6875   0x1fff6875   0x00000003   PAD
    0x1fff6878   0x1fff6878   0x00000030   Data   RO         2178    Region$$Table       anon$$obj.o
    0x1fff68a8   0x1fff68a8   0x00000001   Data   RW            9    .data               main.o
    0x1fff68a9   0x1fff68a9   0x00000003   PAD
    0x1fff68ac   0x1fff68ac   0x00000012   Data   RW          219    .data               phy_rf.o
    0x1fff68be   0x1fff68be   0x00000002   PAD
    0x1fff68c0   0x1fff68c0   0x00000004   Data   RW          350    .data               osal_phyrf.o
    0x1fff68c4   0x1fff68c4   0x0000000f   Data   RW          433    .data               adc.o
    0x1fff68d3   0x1fff68d3   0x00000001   PAD
    0x1fff68d4   0x1fff68d4   0x00000010   Data   RW          611    .data               my.o
    0x1fff68e4   0x1fff68e4   0x00000004   Data   RW         1035    .data               timer.o
    0x1fff68e8   0x1fff68e8   0x00000018   Data   RW         1138    .data               pwrmgr.o
    0x1fff6900   0x1fff6900   0x00000008   Data   RW         1253    .data               my_printf.o
    0x1fff6908   0x1fff6908   0x0000001c   Data   RW         1319    .data               flash.o
    0x1fff6924   0x1fff6924   0x00000004   Data   RW         1758    .data               jump_table.o
    0x1fff6928   0x1fff6928   0x00000004   Data   RW         1798    .data               system_armcm0.o
    0x1fff692c   0x1fff692c   0x00000020   Data   RW         1911    .data               rf.lib(patch.o)
    0x1fff694c   0x1fff694c   0x00000004   Data   RW         2065    .data               rf.lib(phy_sec_ext.o)
    0x1fff6950   0x1fff6950   0x00000001   Data   RW         2066    .data               rf.lib(phy_sec_ext.o)
    0x1fff6951   0x1fff6951   0x00000001   PAD
    0x1fff6952   0x1fff6952   0x0000000e   Data   RW         1139    _section_standby_code_  pwrmgr.o
    0x1fff6960        -       0x00000400   Zero   RW            7    .bss                main.o
    0x1fff6d60        -       0x00000244   Zero   RW          218    .bss                phy_rf.o
    0x1fff6fa4        -       0x00000028   Zero   RW          431    .bss                adc.o
    0x1fff6fcc        -       0x00000080   Zero   RW          560    .bss                adc_demo.o
    0x1fff704c        -       0x00000040   Zero   RW          666    .bss                uart.o
    0x1fff708c        -       0x0000012c   Zero   RW          859    .bss                gpio.o
    0x1fff71b8        -       0x00000078   Zero   RW         1137    .bss                pwrmgr.o
    0x1fff7230        -       0x00000020   Zero   RW         1908    .bss                rf.lib(patch.o)
    0x1fff7250        -       0x00000010   Zero   RW         2062    .bss                rf.lib(phy_sec_ext.o)
    0x1fff7260        -       0x00000400   Zero   RW         1787    STACK               startup_armcm0.o



  Load Region LR_ROM_JT_GC (Base: 0x1fff0000, Size: 0x00000800, Max: 0x00000800, ABSOLUTE, COMPRESSED[0x0000040c])

    Execution Region JUMP_TABLE (Exec base: 0x1fff0000, Load base: 0x1fff0000, Size: 0x00000400, Max: 0x00000400, ABSOLUTE)

    Exec Addr    Load Addr    Size         Type   Attr      Idx    E Section Name        Object

    0x1fff0000   0x1fff0000   0x00000400   Data   RO         1760    jump_table_mem_area  jump_table.o


    Execution Region GOLBAL_CONFIG (Exec base: 0x1fff0400, Load base: 0x1fff0400, Size: 0x00000400, Max: 0x00000400, ABSOLUTE, COMPRESSED[0x0000000c])

    Exec Addr    Load Addr    Size         Type   Attr      Idx    E Section Name        Object

    0x1fff0400   COMPRESSED   0x00000400   Data   RW         1759    global_config_area  jump_table.o


==============================================================================

Image component sizes


      Code (inc. data)   RO Data    RW Data    ZI Data      Debug   Object Name

       912         78          0         15         40      16127   adc.o
       382         64         24          0        128       2903   adc_demo.o
       420         22          0          0          0       3442   clock.o
       772         78          0         28          0      14588   flash.o
      1432        158        138          0        300      22944   gpio.o
       484          8          0          0          0       5284   iic_1.o
       536        332       1024       1028          0       1954   jump_table.o
       376         54         30          1       1024      35658   main.o
       178         26          0         16          0       2037   my.o
      1070         22         93          8          0       7159   my_printf.o
        36          6          5          4          0       1540   osal_phyrf.o
      1318        158          0         18        580      12562   phy_rf.o
       704         96          0         38        120       8988   pwrmgr.o
       300          0          0          0          0       2482   qma7981.o
        20         10          8          0       1024        400   startup_armcm0.o
        16          8          0          4          0        655   system_armcm0.o
        72         16          0          4          0       2005   timer.o
      1264        118         12          0         64       8957   uart.o

    ----------------------------------------------------------------------
     11434       1630       1392       1170       3280     149685   Object Totals
      1128        376         48          0          0          0   (incl. Generated)
        14          0         10          6          0          0   (incl. Padding)

    ----------------------------------------------------------------------

      Code (inc. data)   RO Data    RW Data    ZI Data      Debug   Library Member Name

        86          0          0          0          0          0   __dczerorl2.o
         0          0          0          0          0          0   entry.o
         0          0          0          0          0          0   entry10a.o
         0          0          0          0          0          0   entry11a.o
         4          0          0          0          0          0   entry12b.o
         8          4          0          0          0          0   entry2.o
         4          0          0          0          0          0   entry5.o
         0          0          0          0          0          0   entry7b.o
         0          0          0          0          0          0   entry8b.o
         8          4          0          0          0          0   entry9a.o
        30          0          0          0          0          0   handlers.o
        36          8          0          0          0         68   init.o
         0          0          0          0          0          0   iusefp.o
        32          0          0          0          0         68   llshl.o
        38          0          0          0          0         68   llsshr.o
        34          0          0          0          0         68   llushr.o
       360          6          0          0          0        140   dadd.o
       240          6          0          0          0         84   ddiv.o
       236          0          0          0          0        216   depilogue.o
        60         10          0          0          0         68   dfixui.o
        28          4          0          0          0         68   dfltui.o
       208          6          0          0          0         88   dmul.o
      5180        666          0         32         32       2092   patch.o
       224         36         17          5         16        276   phy_sec_ext.o
      1942        382          0          0          0        876   rf_phy_driver.o

    ----------------------------------------------------------------------
      8770       1132         20         38         48       4180   Library Totals
        12          0          3          1          0          0   (incl. Padding)

    ----------------------------------------------------------------------

      Code (inc. data)   RO Data    RW Data    ZI Data      Debug   Library Name

       280         16          0          0          0        272   mc_p.l
      1132         32          0          0          0        664   mf_p.l
      7346       1084         17         37         48       3244   rf.lib

    ----------------------------------------------------------------------
      8770       1132         20         38         48       4180   Library Totals

    ----------------------------------------------------------------------

==============================================================================


      Code (inc. data)   RO Data    RW Data    ZI Data      Debug   

     20204       2762       1412       1208       3328     146865   Grand Totals
     20204       2762       1412        196       3328     146865   ELF Image Totals (compressed)
     20204       2762       1412        196          0          0   ROM Totals

==============================================================================

    Total RO  Size (Code + RO Data)                21616 (  21.11kB)
    Total RW  Size (RW Data + ZI Data)              4536 (   4.43kB)
    Total ROM Size (Code + RO Data + RW Data)      21812 (  21.30kB)

==============================================================================

